gpasm-1.4.0 #1107 (Feb 13 2015)   usb_ep1.asm   4-21-2015  23:49:51         PAGE  1


LOC    OBJECT CODE    LINE  SOURCE TEXT
  VALUE

                      00001 ;--------------------------------------------------------
                      00002 ; File Created by SDCC : free open source ANSI-C Compiler
                      00003 ; Version 3.4.0 #8981 (May 19 2014) (Linux)
                      00004 ; This file was generated Tue Apr 21 23:49:51 2015
                      00005 ;--------------------------------------------------------
                      00006 ; PIC16 port for the Microchip 16-bit core micros
                      00007 ;--------------------------------------------------------
                      00008 
                      00009         .ident "SDCC version 3.4.0 #8981 [pic16 port]"
                      00010         .file   "usb_ep1.c"
                      00011         list    p=18f2550
                      00012         radix   dec
                      00013 
                      00014 
                      00015 ;--------------------------------------------------------
                      00016 ; public variables in this module
                      00017 ;--------------------------------------------------------
  0000                00018         global  _USB_EP1_init
  0000                00019         global  _godpic_flush
  0000                00020         global  _godpic_puts
  0000                00021         global  _godpic_putc
  0000                00022         global  _USB_EP1_transmission
                      00023 
                      00024 ;--------------------------------------------------------
                      00025 ; extern variables in this module
                      00026 ;--------------------------------------------------------
  0000                00027         extern  __gptrget1
  0000                00028         extern  _UFRMLbits
  0000                00029         extern  _UFRMHbits
  0000                00030         extern  _UIRbits
  0000                00031         extern  _UIEbits
  0000                00032         extern  _UEIRbits
  0000                00033         extern  _UEIEbits
  0000                00034         extern  _USTATbits
  0000                00035         extern  _UCONbits
  0000                00036         extern  _UADDRbits
  0000                00037         extern  _UCFGbits
  0000                00038         extern  _UEP0bits
  0000                00039         extern  _UEP1bits
  0000                00040         extern  _UEP2bits
  0000                00041         extern  _UEP3bits
  0000                00042         extern  _UEP4bits
  0000                00043         extern  _UEP5bits
  0000                00044         extern  _UEP6bits
  0000                00045         extern  _UEP7bits
  0000                00046         extern  _UEP8bits
  0000                00047         extern  _UEP9bits
  0000                00048         extern  _UEP10bits
  0000                00049         extern  _UEP11bits
  0000                00050         extern  _UEP12bits
  0000                00051         extern  _UEP13bits
  0000                00052         extern  _UEP14bits
  0000                00053         extern  _UEP15bits
gpasm-1.4.0 #1107 (Feb 13 2015)   usb_ep1.asm   4-21-2015  23:49:51         PAGE  2


LOC    OBJECT CODE    LINE  SOURCE TEXT
  VALUE

  0000                00054         extern  _PORTAbits
  0000                00055         extern  _PORTBbits
  0000                00056         extern  _PORTCbits
  0000                00057         extern  _PORTEbits
  0000                00058         extern  _LATAbits
  0000                00059         extern  _LATBbits
  0000                00060         extern  _LATCbits
  0000                00061         extern  _DDRAbits
  0000                00062         extern  _TRISAbits
  0000                00063         extern  _DDRBbits
  0000                00064         extern  _TRISBbits
  0000                00065         extern  _DDRCbits
  0000                00066         extern  _TRISCbits
  0000                00067         extern  _OSCTUNEbits
  0000                00068         extern  _PIE1bits
  0000                00069         extern  _PIR1bits
  0000                00070         extern  _IPR1bits
  0000                00071         extern  _PIE2bits
  0000                00072         extern  _PIR2bits
  0000                00073         extern  _IPR2bits
  0000                00074         extern  _EECON1bits
  0000                00075         extern  _RCSTAbits
  0000                00076         extern  _TXSTAbits
  0000                00077         extern  _T3CONbits
  0000                00078         extern  _CMCONbits
  0000                00079         extern  _CVRCONbits
  0000                00080         extern  _CCP1ASbits
  0000                00081         extern  _ECCP1ASbits
  0000                00082         extern  _CCP1DELbits
  0000                00083         extern  _ECCP1DELbits
  0000                00084         extern  _BAUDCONbits
  0000                00085         extern  _BAUDCTLbits
  0000                00086         extern  _CCP2CONbits
  0000                00087         extern  _CCP1CONbits
  0000                00088         extern  _ADCON2bits
  0000                00089         extern  _ADCON1bits
  0000                00090         extern  _ADCON0bits
  0000                00091         extern  _SSPCON2bits
  0000                00092         extern  _SSPCON1bits
  0000                00093         extern  _SSPSTATbits
  0000                00094         extern  _T2CONbits
  0000                00095         extern  _T1CONbits
  0000                00096         extern  _RCONbits
  0000                00097         extern  _WDTCONbits
  0000                00098         extern  _HLVDCONbits
  0000                00099         extern  _LVDCONbits
  0000                00100         extern  _OSCCONbits
  0000                00101         extern  _T0CONbits
  0000                00102         extern  _STATUSbits
  0000                00103         extern  _INTCON3bits
  0000                00104         extern  _INTCON2bits
  0000                00105         extern  _INTCONbits
  0000                00106         extern  _STKPTRbits
gpasm-1.4.0 #1107 (Feb 13 2015)   usb_ep1.asm   4-21-2015  23:49:51         PAGE  3


LOC    OBJECT CODE    LINE  SOURCE TEXT
  VALUE

  0000                00107         extern  _usb_ustat
  0000                00108         extern  _usb_bd
  0000                00109         extern  _UFRM
  0000                00110         extern  _UFRML
  0000                00111         extern  _UFRMH
  0000                00112         extern  _UIR
  0000                00113         extern  _UIE
  0000                00114         extern  _UEIR
  0000                00115         extern  _UEIE
  0000                00116         extern  _USTAT
  0000                00117         extern  _UCON
  0000                00118         extern  _UADDR
  0000                00119         extern  _UCFG
  0000                00120         extern  _UEP0
  0000                00121         extern  _UEP1
  0000                00122         extern  _UEP2
  0000                00123         extern  _UEP3
  0000                00124         extern  _UEP4
  0000                00125         extern  _UEP5
  0000                00126         extern  _UEP6
  0000                00127         extern  _UEP7
  0000                00128         extern  _UEP8
  0000                00129         extern  _UEP9
  0000                00130         extern  _UEP10
  0000                00131         extern  _UEP11
  0000                00132         extern  _UEP12
  0000                00133         extern  _UEP13
  0000                00134         extern  _UEP14
  0000                00135         extern  _UEP15
  0000                00136         extern  _PORTA
  0000                00137         extern  _PORTB
  0000                00138         extern  _PORTC
  0000                00139         extern  _PORTE
  0000                00140         extern  _LATA
  0000                00141         extern  _LATB
  0000                00142         extern  _LATC
  0000                00143         extern  _DDRA
  0000                00144         extern  _TRISA
  0000                00145         extern  _DDRB
  0000                00146         extern  _TRISB
  0000                00147         extern  _DDRC
  0000                00148         extern  _TRISC
  0000                00149         extern  _OSCTUNE
  0000                00150         extern  _PIE1
  0000                00151         extern  _PIR1
  0000                00152         extern  _IPR1
  0000                00153         extern  _PIE2
  0000                00154         extern  _PIR2
  0000                00155         extern  _IPR2
  0000                00156         extern  _EECON1
  0000                00157         extern  _EECON2
  0000                00158         extern  _EEDATA
  0000                00159         extern  _EEADR
gpasm-1.4.0 #1107 (Feb 13 2015)   usb_ep1.asm   4-21-2015  23:49:51         PAGE  4


LOC    OBJECT CODE    LINE  SOURCE TEXT
  VALUE

  0000                00160         extern  _RCSTA
  0000                00161         extern  _TXSTA
  0000                00162         extern  _TXREG
  0000                00163         extern  _RCREG
  0000                00164         extern  _SPBRG
  0000                00165         extern  _SPBRGH
  0000                00166         extern  _T3CON
  0000                00167         extern  _TMR3
  0000                00168         extern  _TMR3L
  0000                00169         extern  _TMR3H
  0000                00170         extern  _CMCON
  0000                00171         extern  _CVRCON
  0000                00172         extern  _CCP1AS
  0000                00173         extern  _ECCP1AS
  0000                00174         extern  _CCP1DEL
  0000                00175         extern  _ECCP1DEL
  0000                00176         extern  _BAUDCON
  0000                00177         extern  _BAUDCTL
  0000                00178         extern  _CCP2CON
  0000                00179         extern  _CCPR2
  0000                00180         extern  _CCPR2L
  0000                00181         extern  _CCPR2H
  0000                00182         extern  _CCP1CON
  0000                00183         extern  _CCPR1
  0000                00184         extern  _CCPR1L
  0000                00185         extern  _CCPR1H
  0000                00186         extern  _ADCON2
  0000                00187         extern  _ADCON1
  0000                00188         extern  _ADCON0
  0000                00189         extern  _ADRES
  0000                00190         extern  _ADRESL
  0000                00191         extern  _ADRESH
  0000                00192         extern  _SSPCON2
  0000                00193         extern  _SSPCON1
  0000                00194         extern  _SSPSTAT
  0000                00195         extern  _SSPADD
  0000                00196         extern  _SSPBUF
  0000                00197         extern  _T2CON
  0000                00198         extern  _PR2
  0000                00199         extern  _TMR2
  0000                00200         extern  _T1CON
  0000                00201         extern  _TMR1
  0000                00202         extern  _TMR1L
  0000                00203         extern  _TMR1H
  0000                00204         extern  _RCON
  0000                00205         extern  _WDTCON
  0000                00206         extern  _HLVDCON
  0000                00207         extern  _LVDCON
  0000                00208         extern  _OSCCON
  0000                00209         extern  _T0CON
  0000                00210         extern  _TMR0
  0000                00211         extern  _TMR0L
  0000                00212         extern  _TMR0H
gpasm-1.4.0 #1107 (Feb 13 2015)   usb_ep1.asm   4-21-2015  23:49:51         PAGE  5


LOC    OBJECT CODE    LINE  SOURCE TEXT
  VALUE

  0000                00213         extern  _STATUS
  0000                00214         extern  _FSR2L
  0000                00215         extern  _FSR2H
  0000                00216         extern  _PLUSW2
  0000                00217         extern  _PREINC2
  0000                00218         extern  _POSTDEC2
  0000                00219         extern  _POSTINC2
  0000                00220         extern  _INDF2
  0000                00221         extern  _BSR
  0000                00222         extern  _FSR1L
  0000                00223         extern  _FSR1H
  0000                00224         extern  _PLUSW1
  0000                00225         extern  _PREINC1
  0000                00226         extern  _POSTDEC1
  0000                00227         extern  _POSTINC1
  0000                00228         extern  _INDF1
  0000                00229         extern  _WREG
  0000                00230         extern  _FSR0L
  0000                00231         extern  _FSR0H
  0000                00232         extern  _PLUSW0
  0000                00233         extern  _PREINC0
  0000                00234         extern  _POSTDEC0
  0000                00235         extern  _POSTINC0
  0000                00236         extern  _INDF0
  0000                00237         extern  _INTCON3
  0000                00238         extern  _INTCON2
  0000                00239         extern  _INTCON
  0000                00240         extern  _PROD
  0000                00241         extern  _PRODL
  0000                00242         extern  _PRODH
  0000                00243         extern  _TABLAT
  0000                00244         extern  _TBLPTR
  0000                00245         extern  _TBLPTRL
  0000                00246         extern  _TBLPTRH
  0000                00247         extern  _TBLPTRU
  0000                00248         extern  _PC
  0000                00249         extern  _PCL
  0000                00250         extern  _PCLATH
  0000                00251         extern  _PCLATU
  0000                00252         extern  _STKPTR
  0000                00253         extern  _TOS
  0000                00254         extern  _TOSL
  0000                00255         extern  _TOSH
  0000                00256         extern  _TOSU
                      00257 
                      00258 ;--------------------------------------------------------
                      00259 ;       Equates to used internal registers
                      00260 ;--------------------------------------------------------
  00000FD8            00261 STATUS  equ     0xfd8
  00000FE8            00262 WREG    equ     0xfe8
  00000FE9            00263 FSR0L   equ     0xfe9
  00000FEA            00264 FSR0H   equ     0xfea
  00000FE1            00265 FSR1L   equ     0xfe1
gpasm-1.4.0 #1107 (Feb 13 2015)   usb_ep1.asm   4-21-2015  23:49:51         PAGE  6


LOC    OBJECT CODE    LINE  SOURCE TEXT
  VALUE

  00000FD9            00266 FSR2L   equ     0xfd9
  00000FEF            00267 INDF0   equ     0xfef
  00000FE5            00268 POSTDEC1        equ     0xfe5
  00000FE4            00269 PREINC1 equ     0xfe4
  00000FDB            00270 PLUSW2  equ     0xfdb
  00000FF3            00271 PRODL   equ     0xff3
                      00272 
                      00273 
                      00274         idata
000000 00             00275 _buffer_fill    db      0x00
                      00276 
                      00277 
                      00278 ; Internal registers
                      00279 .registers      udata_ovr       0x0000
000000                00280 r0x00   res     1
000001                00281 r0x01   res     1
000002                00282 r0x02   res     1
000003                00283 r0x03   res     1
000004                00284 r0x04   res     1
000005                00285 r0x05   res     1
000006                00286 r0x06   res     1
000007                00287 r0x07   res     1
000008                00288 r0x08   res     1
000009                00289 r0x09   res     1
00000A                00290 r0x0a   res     1
00000B                00291 r0x0b   res     1
                      00292 
                      00293 
                      00294 databank6       udata
000000                00295 _USB_EP1_in_buffer      res     64
                      00296 
                      00297 ;--------------------------------------------------------
                      00298 ; global & static initialisations
                      00299 ;--------------------------------------------------------
                      00300 ; I code from now on!
                      00301 ; ; Starting pCode block
                      00302 S_usb_ep1__USB_EP1_transmission code
000000                00303 _USB_EP1_transmission:
                      00304         .line   109; usb_ep1.c  void USB_EP1_transmission(void)
000000 CFD9 FFE5      00305         MOVFF   FSR2L, POSTDEC1
000004 CFE1 FFD9      00306         MOVFF   FSR1L, FSR2L
                      00307         .line   114; usb_ep1.c  }
000008 CFE4 FFD9      00308         MOVFF   PREINC1, FSR2L
00000C 0012           00309         RETURN  
                      00310 
                      00311 ; ; Starting pCode block
                      00312 S_usb_ep1__godpic_putc  code
000000                00313 _godpic_putc:
                      00314         .line   94; usb_ep1.c   void godpic_putc(char src)
000000 CFD9 FFE5      00315         MOVFF   FSR2L, POSTDEC1
000004 CFE1 FFD9      00316         MOVFF   FSR1L, FSR2L
000008 C??? F???      00317         MOVFF   r0x00, POSTDEC1
00000C C??? F???      00318         MOVFF   r0x01, POSTDEC1
gpasm-1.4.0 #1107 (Feb 13 2015)   usb_ep1.asm   4-21-2015  23:49:51         PAGE  7


LOC    OBJECT CODE    LINE  SOURCE TEXT
  VALUE

000010 C??? F???      00319         MOVFF   r0x02, POSTDEC1
000014 0E02           00320         MOVLW   0x02
000016 CFDB F000      00321         MOVFF   PLUSW2, r0x00
                      00322         .line   97; usb_ep1.c   unsigned char __near *dst = bdpnt->adr;
00001A C??? F???      00323         MOVFF   (_usb_bd + 14), r0x01
00001E C??? F???      00324         MOVFF   (_usb_bd + 15), r0x02
000022 ????           00325         BANKSEL _buffer_fill
                      00326         .line   99; usb_ep1.c   if ( buffer_fill == EP1_BUFFER_SIZE ) {
000024 51??           00327         MOVF    _buffer_fill, W, B
000026 0A40           00328         XORLW   0x40
000028 E1??           00329         BNZ     _00174_DS_
                      00330         .line   100; usb_ep1.c  godpic_flush();
00002A EC?? F0??      00331         CALL    _godpic_flush
00002E                00332 _00170_DS_:
00002E ????           00333         BANKSEL (_usb_bd + 12)
                      00334         .line   101; usb_ep1.c  while ( bdpnt->statbits.UOWN ) ; // wait for it tobecame ours.
000030 BF??           00335         BTFSC   (_usb_bd + 12), 7, B
000032 D???           00336         BRA     _00170_DS_
000034                00337 _00174_DS_:
000034 ????           00338         BANKSEL _buffer_fill
                      00339         .line   105; usb_ep1.c  dst[buffer_fill] = src;
000036 51??           00340         MOVF    _buffer_fill, W, B
000038 26??           00341         ADDWF   r0x01, F
Message[1301]: Using default destination of 0 (Access Bank).
00003A 6AE8           00342         CLRF    WREG
00003C 22??           00343         ADDWFC  r0x02, F
00003E C??? F???      00344         MOVFF   r0x01, FSR0L
000042 C??? F???      00345         MOVFF   r0x02, FSR0H
000046 C??? F???      00346         MOVFF   r0x00, INDF0
00004A ????           00347         BANKSEL _buffer_fill
                      00348         .line   106; usb_ep1.c  buffer_fill++;
00004C 2B??           00349         INCF    _buffer_fill, F, B
00004E CFE4 F000      00350         MOVFF   PREINC1, r0x02
000052 CFE4 F000      00351         MOVFF   PREINC1, r0x01
000056 CFE4 F000      00352         MOVFF   PREINC1, r0x00
00005A CFE4 FFD9      00353         MOVFF   PREINC1, FSR2L
00005E 0012           00354         RETURN  
                      00355 
                      00356 ; ; Starting pCode block
                      00357 S_usb_ep1__godpic_puts  code
000000                00358 _godpic_puts:
                      00359         .line   68; usb_ep1.c   void godpic_puts(char *src)
000000 CFD9 FFE5      00360         MOVFF   FSR2L, POSTDEC1
000004 CFE1 FFD9      00361         MOVFF   FSR1L, FSR2L
000008 C??? F???      00362         MOVFF   r0x00, POSTDEC1
00000C C??? F???      00363         MOVFF   r0x01, POSTDEC1
000010 C??? F???      00364         MOVFF   r0x02, POSTDEC1
000014 C??? F???      00365         MOVFF   r0x03, POSTDEC1
000018 C??? F???      00366         MOVFF   r0x04, POSTDEC1
00001C C??? F???      00367         MOVFF   r0x05, POSTDEC1
000020 C??? F???      00368         MOVFF   r0x06, POSTDEC1
000024 C??? F???      00369         MOVFF   r0x07, POSTDEC1
000028 C??? F???      00370         MOVFF   r0x08, POSTDEC1
gpasm-1.4.0 #1107 (Feb 13 2015)   usb_ep1.asm   4-21-2015  23:49:51         PAGE  8


LOC    OBJECT CODE    LINE  SOURCE TEXT
  VALUE

00002C C??? F???      00371         MOVFF   r0x09, POSTDEC1
000030 C??? F???      00372         MOVFF   r0x0a, POSTDEC1
000034 C??? F???      00373         MOVFF   r0x0b, POSTDEC1
000038 0E02           00374         MOVLW   0x02
00003A CFDB F000      00375         MOVFF   PLUSW2, r0x00
00003E 0E03           00376         MOVLW   0x03
000040 CFDB F000      00377         MOVFF   PLUSW2, r0x01
000044 0E04           00378         MOVLW   0x04
000046 CFDB F000      00379         MOVFF   PLUSW2, r0x02
                      00380         .line   71; usb_ep1.c   unsigned char __near *dst = bdpnt->adr;
00004A C??? F???      00381         MOVFF   (_usb_bd + 14), r0x03
00004E C??? F???      00382         MOVFF   (_usb_bd + 15), r0x04
                      00383         .line   74; usb_ep1.c   godpic_flush();
000052 EC?? F0??      00384         CALL    _godpic_flush
000056                00385 _00141_DS_:
                      00386         .line   76; usb_ep1.c   while( *src != '\0' ) {
000056 C??? F???      00387         MOVFF   r0x00, FSR0L
00005A C??? F???      00388         MOVFF   r0x01, PRODL
00005E 50??           00389         MOVF    r0x02, W
000060 EC?? F0??      00390         CALL    __gptrget1
Message[1301]: Using default destination of 0 (Access Bank).
000064 6E??           00391         MOVWF   r0x05
000066 50??           00392         MOVF    r0x05, W
000068 B4D8           00393         BTFSC   STATUS, 2
00006A D???           00394         BRA     _00146_DS_
00006C                00395 _00135_DS_:
00006C ????           00396         BANKSEL (_usb_bd + 12)
                      00397         .line   77; usb_ep1.c   while ( bdpnt->statbits.UOWN ) ; // wait for it tobecame ours.
00006E BF??           00398         BTFSC   (_usb_bd + 12), 7, B
000070 D???           00399         BRA     _00135_DS_
                      00400         .line   80; usb_ep1.c   for (i=0; i<EP1_BUFFER_SIZE; i++) {
000072 C??? F???      00401         MOVFF   r0x03, r0x05
000076 C??? F???      00402         MOVFF   r0x04, r0x06
00007A C??? F???      00403         MOVFF   r0x00, r0x07
00007E C??? F???      00404         MOVFF   r0x01, r0x08
000082 C??? F???      00405         MOVFF   r0x02, r0x09
Message[1301]: Using default destination of 0 (Access Bank).
000086 6A??           00406         CLRF    r0x0a
000088                00407 _00144_DS_:
                      00408         .line   81; usb_ep1.c   *dst = *src;
000088 C??? F???      00409         MOVFF   r0x07, FSR0L
00008C C??? F???      00410         MOVFF   r0x08, PRODL
000090 50??           00411         MOVF    r0x09, W
000092 EC?? F0??      00412         CALL    __gptrget1
Message[1301]: Using default destination of 0 (Access Bank).
000096 6E??           00413         MOVWF   r0x0b
000098 C??? F???      00414         MOVFF   r0x05, FSR0L
00009C C??? F???      00415         MOVFF   r0x06, FSR0H
0000A0 C??? F???      00416         MOVFF   r0x0b, INDF0
                      00417         .line   82; usb_ep1.c   if ( *src == '\0' ) {
0000A4 C??? F???      00418         MOVFF   r0x07, FSR0L
0000A8 C??? F???      00419         MOVFF   r0x08, PRODL
0000AC 50??           00420         MOVF    r0x09, W
gpasm-1.4.0 #1107 (Feb 13 2015)   usb_ep1.asm   4-21-2015  23:49:51         PAGE  9


LOC    OBJECT CODE    LINE  SOURCE TEXT
  VALUE

0000AE EC?? F0??      00421         CALL    __gptrget1
Message[1301]: Using default destination of 0 (Access Bank).
0000B2 6E??           00422         MOVWF   r0x0b
0000B4 50??           00423         MOVF    r0x0b, W
0000B6 E0??           00424         BZ      _00153_DS_
                      00425         .line   85; usb_ep1.c   dst++;
0000B8 4A??           00426         INFSNZ  r0x05, F
0000BA 2A??           00427         INCF    r0x06, F
                      00428         .line   86; usb_ep1.c   src++;
0000BC 2A??           00429         INCF    r0x07, F
0000BE E3??           00430         BNC     _00164_DS_
0000C0 4A??           00431         INFSNZ  r0x08, F
0000C2 2A??           00432         INCF    r0x09, F
0000C4                00433 _00164_DS_:
                      00434         .line   80; usb_ep1.c   for (i=0; i<EP1_BUFFER_SIZE; i++) {
0000C4 2A??           00435         INCF    r0x0a, F
0000C6 0E40           00436         MOVLW   0x40
0000C8 5C??           00437         SUBWF   r0x0a, W
0000CA E3??           00438         BNC     _00144_DS_
0000CC                00439 _00153_DS_:
0000CC C??? F???      00440         MOVFF   r0x05, r0x03
0000D0 C??? F???      00441         MOVFF   r0x06, r0x04
0000D4 C??? F???      00442         MOVFF   r0x07, r0x00
0000D8 C??? F???      00443         MOVFF   r0x08, r0x01
0000DC C??? F???      00444         MOVFF   r0x09, r0x02
                      00445         .line   89; usb_ep1.c   buffer_fill = i;
0000E0 C??? F???      00446         MOVFF   r0x0a, _buffer_fill
                      00447         .line   90; usb_ep1.c   godpic_flush();
0000E4 EC?? F0??      00448         CALL    _godpic_flush
0000E8 D???           00449         BRA     _00141_DS_
0000EA                00450 _00146_DS_:
0000EA CFE4 F000      00451         MOVFF   PREINC1, r0x0b
0000EE CFE4 F000      00452         MOVFF   PREINC1, r0x0a
0000F2 CFE4 F000      00453         MOVFF   PREINC1, r0x09
0000F6 CFE4 F000      00454         MOVFF   PREINC1, r0x08
0000FA CFE4 F000      00455         MOVFF   PREINC1, r0x07
0000FE CFE4 F000      00456         MOVFF   PREINC1, r0x06
000102 CFE4 F000      00457         MOVFF   PREINC1, r0x05
000106 CFE4 F000      00458         MOVFF   PREINC1, r0x04
00010A CFE4 F000      00459         MOVFF   PREINC1, r0x03
00010E CFE4 F000      00460         MOVFF   PREINC1, r0x02
000112 CFE4 F000      00461         MOVFF   PREINC1, r0x01
000116 CFE4 F000      00462         MOVFF   PREINC1, r0x00
00011A CFE4 FFD9      00463         MOVFF   PREINC1, FSR2L
00011E 0012           00464         RETURN  
                      00465 
                      00466 ; ; Starting pCode block
                      00467 S_usb_ep1__godpic_flush code
000000                00468 _godpic_flush:
                      00469         .line   56; usb_ep1.c   void godpic_flush()
000000 CFD9 FFE5      00470         MOVFF   FSR2L, POSTDEC1
000004 CFE1 FFD9      00471         MOVFF   FSR1L, FSR2L
000008 C??? F???      00472         MOVFF   r0x00, POSTDEC1
gpasm-1.4.0 #1107 (Feb 13 2015)   usb_ep1.asm   4-21-2015  23:49:51         PAGE 10


LOC    OBJECT CODE    LINE  SOURCE TEXT
  VALUE

00000C ????           00473         BANKSEL _buffer_fill
                      00474         .line   59; usb_ep1.c   if ( buffer_fill != 0 ) {
00000E 51??           00475         MOVF    _buffer_fill, W, B
000010 E0??           00476         BZ      _00126_DS_
000012 ????           00477         BANKSEL _buffer_fill
                      00478         .line   60; usb_ep1.c   bdpnt->cnt = buffer_fill;
000014 51??           00479         MOVF    _buffer_fill, W, B
000016 ????           00480         BANKSEL (_usb_bd + 13)
000018 6F??           00481         MOVWF   (_usb_bd + 13), B
                      00482         .line   61; usb_ep1.c   USB_BD_SET_STAT(bdpnt);
00001A 0E40           00483         MOVLW   0x40
00001C ????           00484         BANKSEL (_usb_bd + 12)
00001E 15??           00485         ANDWF   (_usb_bd + 12), W, B
Message[1301]: Using default destination of 0 (Access Bank).
000020 6E??           00486         MOVWF   r0x00
000022 7C??           00487         BTG     r0x00, 6
000024 0E88           00488         MOVLW   0x88
000026 12??           00489         IORWF   r0x00, F
000028 50??           00490         MOVF    r0x00, W
00002A ????           00491         BANKSEL (_usb_bd + 12)
00002C 6F??           00492         MOVWF   (_usb_bd + 12), B
00002E                00493 _00126_DS_:
00002E ????           00494         BANKSEL _buffer_fill
                      00495         .line   63; usb_ep1.c   buffer_fill = 0;
000030 6B??           00496         CLRF    _buffer_fill, B
000032                00497 _00127_DS_:
000032 ????           00498         BANKSEL (_usb_bd + 12)
                      00499         .line   65; usb_ep1.c   while ( bdpnt->statbits.UOWN ) ; // wait for it tobecame ours.
000034 BF??           00500         BTFSC   (_usb_bd + 12), 7, B
000036 D???           00501         BRA     _00127_DS_
000038 CFE4 F000      00502         MOVFF   PREINC1, r0x00
00003C CFE4 FFD9      00503         MOVFF   PREINC1, FSR2L
000040 0012           00504         RETURN  
                      00505 
                      00506 ; ; Starting pCode block
                      00507 S_usb_ep1__USB_EP1_init code
000000                00508 _USB_EP1_init:
                      00509         .line   32; usb_ep1.c   void USB_EP1_init(void)
000000 CFD9 FFE5      00510         MOVFF   FSR2L, POSTDEC1
000004 CFE1 FFD9      00511         MOVFF   FSR1L, FSR2L
000008 C??? F???      00512         MOVFF   r0x00, POSTDEC1
00000C C??? F???      00513         MOVFF   r0x01, POSTDEC1
000010 C??? F???      00514         MOVFF   r0x02, POSTDEC1
                      00515         .line   36; usb_ep1.c   for (i=0; i<sizeof(USB_EP1_in_buffer); i++)
Message[1301]: Using default destination of 0 (Access Bank).
000014 6A??           00516         CLRF    r0x00
000016                00517 _00106_DS_:
                      00518         .line   37; usb_ep1.c   ((unsigned char *)USB_EP1_in_buffer)[i] = 0;
000016 0E??           00519         MOVLW   LOW(_USB_EP1_in_buffer)
Message[1301]: Using default destination of 0 (Access Bank).
000018 6E??           00520         MOVWF   r0x01
00001A 0E??           00521         MOVLW   HIGH(_USB_EP1_in_buffer)
Message[1301]: Using default destination of 0 (Access Bank).
gpasm-1.4.0 #1107 (Feb 13 2015)   usb_ep1.asm   4-21-2015  23:49:51         PAGE 11


LOC    OBJECT CODE    LINE  SOURCE TEXT
  VALUE

00001C 6E??           00522         MOVWF   r0x02
00001E 50??           00523         MOVF    r0x00, W
000020 26??           00524         ADDWF   r0x01, F
Message[1301]: Using default destination of 0 (Access Bank).
000022 6AE8           00525         CLRF    WREG
000024 22??           00526         ADDWFC  r0x02, F
000026 C??? F???      00527         MOVFF   r0x01, FSR0L
00002A C??? F???      00528         MOVFF   r0x02, FSR0H
00002E 0E00           00529         MOVLW   0x00
Message[1301]: Using default destination of 0 (Access Bank).
000030 6EEF           00530         MOVWF   INDF0
                      00531         .line   36; usb_ep1.c   for (i=0; i<sizeof(USB_EP1_in_buffer); i++)
000032 2A??           00532         INCF    r0x00, F
000034 0E40           00533         MOVLW   0x40
000036 5C??           00534         SUBWF   r0x00, W
000038 E3??           00535         BNC     _00106_DS_
                      00536         .line   40; usb_ep1.c   bdpnt->adr = USB_EP1_in_buffer[0];
00003A 0E??           00537         MOVLW   LOW(_USB_EP1_in_buffer)
00003C ????           00538         BANKSEL (_usb_bd + 14)
00003E 6F??           00539         MOVWF   (_usb_bd + 14), B
000040 0E??           00540         MOVLW   HIGH(_USB_EP1_in_buffer)
000042 ????           00541         BANKSEL (_usb_bd + 15)
000044 6F??           00542         MOVWF   (_usb_bd + 15), B
                      00543         .line   41; usb_ep1.c   bdpnt->cnt = EP1_BUFFER_SIZE;
000046 0E40           00544         MOVLW   0x40
000048 ????           00545         BANKSEL (_usb_bd + 13)
00004A 6F??           00546         MOVWF   (_usb_bd + 13), B
                      00547         .line   42; usb_ep1.c   bdpnt->stat = BD_STAT_USIE | BD_STAT_DATA1 | BD_STAT_DTSEN;
00004C 0EC8           00548         MOVLW   0xc8
00004E ????           00549         BANKSEL (_usb_bd + 12)
000050 6F??           00550         MOVWF   (_usb_bd + 12), B
                      00551         .line   51; usb_ep1.c   UEP1 = UEP_EPHSHK | UEP_EPINEN;
000052 0E12           00552         MOVLW   0x12
Message[1301]: Using default destination of 0 (Access Bank).
000054 6E??           00553         MOVWF   _UEP1
000056 CFE4 F000      00554         MOVFF   PREINC1, r0x02
00005A CFE4 F000      00555         MOVFF   PREINC1, r0x01
00005E CFE4 F000      00556         MOVFF   PREINC1, r0x00
000062 CFE4 FFD9      00557         MOVFF   PREINC1, FSR2L
000066 0012           00558         RETURN  
                      00559 
                      00560 
                      00561 
                      00562 ; Statistics:
                      00563 ; code size:      568 (0x0238) bytes ( 0.43%)
                      00564 ;                 284 (0x011c) words
                      00565 ; udata size:      64 (0x0040) bytes ( 3.57%)
                      00566 ; access size:     12 (0x000c) bytes
                      00567 
                      00568 
                      00569         end
gpasm-1.4.0 #1107 (Feb 13 2015)   usb_ep1.asm   4-21-2015  23:49:51         PAGE 12


SYMBOL TABLE
  LABEL                             VALUE

FSR0H                             00000FEA
FSR0L                             00000FE9
FSR1L                             00000FE1
FSR2L                             00000FD9
INDF0                             00000FEF
PLUSW2                            00000FDB
POSTDEC1                          00000FE5
PREINC1                           00000FE4
PRODL                             00000FF3
STATUS                            00000FD8
WREG                              00000FE8
_00106_DS_                        00000016
_00126_DS_                        0000002E
_00127_DS_                        00000032
_00135_DS_                        0000006C
_00141_DS_                        00000056
_00144_DS_                        00000088
_00146_DS_                        000000EA
_00153_DS_                        000000CC
_00164_DS_                        000000C4
_00170_DS_                        0000002E
_00174_DS_                        00000034
_ADCON0                           00000000
_ADCON0bits                       00000000
_ADCON1                           00000000
_ADCON1bits                       00000000
_ADCON2                           00000000
_ADCON2bits                       00000000
_ADRES                            00000000
_ADRESH                           00000000
_ADRESL                           00000000
_BAUDCON                          00000000
_BAUDCONbits                      00000000
_BAUDCTL                          00000000
_BAUDCTLbits                      00000000
_BSR                              00000000
_CCP1AS                           00000000
_CCP1ASbits                       00000000
_CCP1CON                          00000000
_CCP1CONbits                      00000000
_CCP1DEL                          00000000
_CCP1DELbits                      00000000
_CCP2CON                          00000000
_CCP2CONbits                      00000000
_CCPR1                            00000000
_CCPR1H                           00000000
_CCPR1L                           00000000
_CCPR2                            00000000
_CCPR2H                           00000000
_CCPR2L                           00000000
_CMCON                            00000000
_CMCONbits                        00000000
_CVRCON                           00000000
gpasm-1.4.0 #1107 (Feb 13 2015)   usb_ep1.asm   4-21-2015  23:49:51         PAGE 13


SYMBOL TABLE
  LABEL                             VALUE 

_CVRCONbits                       00000000
_DDRA                             00000000
_DDRAbits                         00000000
_DDRB                             00000000
_DDRBbits                         00000000
_DDRC                             00000000
_DDRCbits                         00000000
_ECCP1AS                          00000000
_ECCP1ASbits                      00000000
_ECCP1DEL                         00000000
_ECCP1DELbits                     00000000
_EEADR                            00000000
_EECON1                           00000000
_EECON1bits                       00000000
_EECON2                           00000000
_EEDATA                           00000000
_FSR0H                            00000000
_FSR0L                            00000000
_FSR1H                            00000000
_FSR1L                            00000000
_FSR2H                            00000000
_FSR2L                            00000000
_HLVDCON                          00000000
_HLVDCONbits                      00000000
_INDF0                            00000000
_INDF1                            00000000
_INDF2                            00000000
_INTCON                           00000000
_INTCON2                          00000000
_INTCON2bits                      00000000
_INTCON3                          00000000
_INTCON3bits                      00000000
_INTCONbits                       00000000
_IPR1                             00000000
_IPR1bits                         00000000
_IPR2                             00000000
_IPR2bits                         00000000
_LATA                             00000000
_LATAbits                         00000000
_LATB                             00000000
_LATBbits                         00000000
_LATC                             00000000
_LATCbits                         00000000
_LVDCON                           00000000
_LVDCONbits                       00000000
_OSCCON                           00000000
_OSCCONbits                       00000000
_OSCTUNE                          00000000
_OSCTUNEbits                      00000000
_PC                               00000000
_PCL                              00000000
_PCLATH                           00000000
_PCLATU                           00000000
gpasm-1.4.0 #1107 (Feb 13 2015)   usb_ep1.asm   4-21-2015  23:49:51         PAGE 14


SYMBOL TABLE
  LABEL                             VALUE 

_PIE1                             00000000
_PIE1bits                         00000000
_PIE2                             00000000
_PIE2bits                         00000000
_PIR1                             00000000
_PIR1bits                         00000000
_PIR2                             00000000
_PIR2bits                         00000000
_PLUSW0                           00000000
_PLUSW1                           00000000
_PLUSW2                           00000000
_PORTA                            00000000
_PORTAbits                        00000000
_PORTB                            00000000
_PORTBbits                        00000000
_PORTC                            00000000
_PORTCbits                        00000000
_PORTE                            00000000
_PORTEbits                        00000000
_POSTDEC0                         00000000
_POSTDEC1                         00000000
_POSTDEC2                         00000000
_POSTINC0                         00000000
_POSTINC1                         00000000
_POSTINC2                         00000000
_PR2                              00000000
_PREINC0                          00000000
_PREINC1                          00000000
_PREINC2                          00000000
_PROD                             00000000
_PRODH                            00000000
_PRODL                            00000000
_RCON                             00000000
_RCONbits                         00000000
_RCREG                            00000000
_RCSTA                            00000000
_RCSTAbits                        00000000
_SPBRG                            00000000
_SPBRGH                           00000000
_SSPADD                           00000000
_SSPBUF                           00000000
_SSPCON1                          00000000
_SSPCON1bits                      00000000
_SSPCON2                          00000000
_SSPCON2bits                      00000000
_SSPSTAT                          00000000
_SSPSTATbits                      00000000
_STATUS                           00000000
_STATUSbits                       00000000
_STKPTR                           00000000
_STKPTRbits                       00000000
_T0CON                            00000000
_T0CONbits                        00000000
gpasm-1.4.0 #1107 (Feb 13 2015)   usb_ep1.asm   4-21-2015  23:49:51         PAGE 15


SYMBOL TABLE
  LABEL                             VALUE 

_T1CON                            00000000
_T1CONbits                        00000000
_T2CON                            00000000
_T2CONbits                        00000000
_T3CON                            00000000
_T3CONbits                        00000000
_TABLAT                           00000000
_TBLPTR                           00000000
_TBLPTRH                          00000000
_TBLPTRL                          00000000
_TBLPTRU                          00000000
_TMR0                             00000000
_TMR0H                            00000000
_TMR0L                            00000000
_TMR1                             00000000
_TMR1H                            00000000
_TMR1L                            00000000
_TMR2                             00000000
_TMR3                             00000000
_TMR3H                            00000000
_TMR3L                            00000000
_TOS                              00000000
_TOSH                             00000000
_TOSL                             00000000
_TOSU                             00000000
_TRISA                            00000000
_TRISAbits                        00000000
_TRISB                            00000000
_TRISBbits                        00000000
_TRISC                            00000000
_TRISCbits                        00000000
_TXREG                            00000000
_TXSTA                            00000000
_TXSTAbits                        00000000
_UADDR                            00000000
_UADDRbits                        00000000
_UCFG                             00000000
_UCFGbits                         00000000
_UCON                             00000000
_UCONbits                         00000000
_UEIE                             00000000
_UEIEbits                         00000000
_UEIR                             00000000
_UEIRbits                         00000000
_UEP0                             00000000
_UEP0bits                         00000000
_UEP1                             00000000
_UEP10                            00000000
_UEP10bits                        00000000
_UEP11                            00000000
_UEP11bits                        00000000
_UEP12                            00000000
_UEP12bits                        00000000
gpasm-1.4.0 #1107 (Feb 13 2015)   usb_ep1.asm   4-21-2015  23:49:51         PAGE 16


SYMBOL TABLE
  LABEL                             VALUE 

_UEP13                            00000000
_UEP13bits                        00000000
_UEP14                            00000000
_UEP14bits                        00000000
_UEP15                            00000000
_UEP15bits                        00000000
_UEP1bits                         00000000
_UEP2                             00000000
_UEP2bits                         00000000
_UEP3                             00000000
_UEP3bits                         00000000
_UEP4                             00000000
_UEP4bits                         00000000
_UEP5                             00000000
_UEP5bits                         00000000
_UEP6                             00000000
_UEP6bits                         00000000
_UEP7                             00000000
_UEP7bits                         00000000
_UEP8                             00000000
_UEP8bits                         00000000
_UEP9                             00000000
_UEP9bits                         00000000
_UFRM                             00000000
_UFRMH                            00000000
_UFRMHbits                        00000000
_UFRML                            00000000
_UFRMLbits                        00000000
_UIE                              00000000
_UIEbits                          00000000
_UIR                              00000000
_UIRbits                          00000000
_USB_EP1_in_buffer                00000000
_USB_EP1_init                     00000000
_USB_EP1_transmission             00000000
_USTAT                            00000000
_USTATbits                        00000000
_WDTCON                           00000000
_WDTCONbits                       00000000
_WREG                             00000000
__18F2550                         00000001
__ACC_RAM_LOW_END                 0000005F
__CODE_END                        00007FFF
__CODE_START                      00000000
__EEPROM_END                      00F000FF
__EEPROM_START                    00F00000
__VECTOR_INT_HIGH                 00000008
__VECTOR_INT_LOW                  00000018
__VECTOR_RESET                    00000000
__gptrget1                        00000000
_buffer_fill                      00000000
_godpic_flush                     00000000
_godpic_putc                      00000000
gpasm-1.4.0 #1107 (Feb 13 2015)   usb_ep1.asm   4-21-2015  23:49:51         PAGE 17


SYMBOL TABLE
  LABEL                             VALUE 

_godpic_puts                      00000000
_usb_bd                           00000000
_usb_ustat                        00000000
r0x00                             00000000
r0x01                             00000001
r0x02                             00000002
r0x03                             00000003
r0x04                             00000004
r0x05                             00000005
r0x06                             00000006
r0x07                             00000007
r0x08                             00000008
r0x09                             00000009
r0x0a                             0000000A
r0x0b                             0000000B

Errors   :     0
Warnings :     0 reported,     0 suppressed
Messages :    12 reported,     0 suppressed

