gpasm-1.4.0 #1107 (Feb 13 2015)      main.asm   4-21-2015  23:49:51         PAGE  1


LOC    OBJECT CODE    LINE  SOURCE TEXT
  VALUE

                      00001 ;--------------------------------------------------------
                      00002 ; File Created by SDCC : free open source ANSI-C Compiler
                      00003 ; Version 3.4.0 #8981 (May 19 2014) (Linux)
                      00004 ; This file was generated Tue Apr 21 23:49:51 2015
                      00005 ;--------------------------------------------------------
                      00006 ; PIC16 port for the Microchip 16-bit core micros
                      00007 ;--------------------------------------------------------
                      00008 
                      00009         .ident "SDCC version 3.4.0 #8981 [pic16 port]"
                      00010         .file   "main.c"
                      00011         list    p=18f2550
                      00012         radix   dec
                      00013         CONFIG  PLLDIV=5
                      00014         CONFIG  CPUDIV=OSC1_PLL2
                      00015         CONFIG  USBDIV=2
                      00016         CONFIG  FOSC=HSPLL_HS
                      00017         CONFIG  IESO=ON,PWRT=ON,BOR=ON,BORV=3,VREGEN=ON,WDT=OFF,WDTPS=32768,MCLRE=ON,LPT1OSC=OFF,PBADEN=
                            OFF,CCP2MX=OFF,STVREN=ON,LVP=OFF,XINST=OFF,DEBUG=OFF,CP0=OFF,CP1=OFF,CP2=OFF,CP3=OFF,CPB=OFF,CPD=OFF,WRT
                            0=OFF,WRT1=OFF,WRT2=OFF,WRT3=OFF,WRTB=OFF,WRTC=OFF,WRTD=OFF,EBTR0=OFF,EBTR1=OFF,EBTR2=OFF,EBTR3=OFF,EBTR
                            B=OFF
                      00018 
                      00019 
                      00020 ;--------------------------------------------------------
                      00021 ; public variables in this module
                      00022 ;--------------------------------------------------------
  0000                00023         global  _state
  0000                00024         global  _timer_speed_H
  0000                00025         global  _timer_speed_L
  0000                00026         global  _serial_init
  0000                00027         global  _uart_process
  0000                00028         global  _process
  0000                00029         global  _clear
  0000                00030         global  _main
Error[113]  : Symbol not previously defined: "_USB_init_in_configured_state"
  0000                00031         global  _USB_init_in_configured_state
                      00032 
                      00033 ;--------------------------------------------------------
                      00034 ; extern variables in this module
                      00035 ;--------------------------------------------------------
  0000                00036         extern  __divuchar
  0000                00037         extern  __moduchar
  0000                00038         extern  __gptrget1
  0000                00039         extern  _UFRMLbits
  0000                00040         extern  _UFRMHbits
  0000                00041         extern  _UIRbits
  0000                00042         extern  _UIEbits
  0000                00043         extern  _UEIRbits
  0000                00044         extern  _UEIEbits
  0000                00045         extern  _USTATbits
  0000                00046         extern  _UCONbits
  0000                00047         extern  _UADDRbits
  0000                00048         extern  _UCFGbits
  0000                00049         extern  _UEP0bits
gpasm-1.4.0 #1107 (Feb 13 2015)      main.asm   4-21-2015  23:49:51         PAGE  2


LOC    OBJECT CODE    LINE  SOURCE TEXT
  VALUE

  0000                00050         extern  _UEP1bits
  0000                00051         extern  _UEP2bits
  0000                00052         extern  _UEP3bits
  0000                00053         extern  _UEP4bits
  0000                00054         extern  _UEP5bits
  0000                00055         extern  _UEP6bits
  0000                00056         extern  _UEP7bits
  0000                00057         extern  _UEP8bits
  0000                00058         extern  _UEP9bits
  0000                00059         extern  _UEP10bits
  0000                00060         extern  _UEP11bits
  0000                00061         extern  _UEP12bits
  0000                00062         extern  _UEP13bits
  0000                00063         extern  _UEP14bits
  0000                00064         extern  _UEP15bits
  0000                00065         extern  _PORTAbits
  0000                00066         extern  _PORTBbits
  0000                00067         extern  _PORTCbits
  0000                00068         extern  _PORTEbits
  0000                00069         extern  _LATAbits
  0000                00070         extern  _LATBbits
  0000                00071         extern  _LATCbits
  0000                00072         extern  _DDRAbits
  0000                00073         extern  _TRISAbits
  0000                00074         extern  _DDRBbits
  0000                00075         extern  _TRISBbits
  0000                00076         extern  _DDRCbits
  0000                00077         extern  _TRISCbits
  0000                00078         extern  _OSCTUNEbits
  0000                00079         extern  _PIE1bits
  0000                00080         extern  _PIR1bits
  0000                00081         extern  _IPR1bits
  0000                00082         extern  _PIE2bits
  0000                00083         extern  _PIR2bits
  0000                00084         extern  _IPR2bits
  0000                00085         extern  _EECON1bits
  0000                00086         extern  _RCSTAbits
  0000                00087         extern  _TXSTAbits
  0000                00088         extern  _T3CONbits
  0000                00089         extern  _CMCONbits
  0000                00090         extern  _CVRCONbits
  0000                00091         extern  _CCP1ASbits
  0000                00092         extern  _ECCP1ASbits
  0000                00093         extern  _CCP1DELbits
  0000                00094         extern  _ECCP1DELbits
  0000                00095         extern  _BAUDCONbits
  0000                00096         extern  _BAUDCTLbits
  0000                00097         extern  _CCP2CONbits
  0000                00098         extern  _CCP1CONbits
  0000                00099         extern  _ADCON2bits
  0000                00100         extern  _ADCON1bits
  0000                00101         extern  _ADCON0bits
  0000                00102         extern  _SSPCON2bits
gpasm-1.4.0 #1107 (Feb 13 2015)      main.asm   4-21-2015  23:49:51         PAGE  3


LOC    OBJECT CODE    LINE  SOURCE TEXT
  VALUE

  0000                00103         extern  _SSPCON1bits
  0000                00104         extern  _SSPSTATbits
  0000                00105         extern  _T2CONbits
  0000                00106         extern  _T1CONbits
  0000                00107         extern  _RCONbits
  0000                00108         extern  _WDTCONbits
  0000                00109         extern  _HLVDCONbits
  0000                00110         extern  _LVDCONbits
  0000                00111         extern  _OSCCONbits
  0000                00112         extern  _T0CONbits
  0000                00113         extern  _STATUSbits
  0000                00114         extern  _INTCON3bits
  0000                00115         extern  _INTCON2bits
  0000                00116         extern  _INTCONbits
  0000                00117         extern  _STKPTRbits
  0000                00118         extern  _UFRM
  0000                00119         extern  _UFRML
  0000                00120         extern  _UFRMH
  0000                00121         extern  _UIR
  0000                00122         extern  _UIE
  0000                00123         extern  _UEIR
  0000                00124         extern  _UEIE
  0000                00125         extern  _USTAT
  0000                00126         extern  _UCON
  0000                00127         extern  _UADDR
  0000                00128         extern  _UCFG
  0000                00129         extern  _UEP0
  0000                00130         extern  _UEP1
  0000                00131         extern  _UEP2
  0000                00132         extern  _UEP3
  0000                00133         extern  _UEP4
  0000                00134         extern  _UEP5
  0000                00135         extern  _UEP6
  0000                00136         extern  _UEP7
  0000                00137         extern  _UEP8
  0000                00138         extern  _UEP9
  0000                00139         extern  _UEP10
  0000                00140         extern  _UEP11
  0000                00141         extern  _UEP12
  0000                00142         extern  _UEP13
  0000                00143         extern  _UEP14
  0000                00144         extern  _UEP15
  0000                00145         extern  _PORTA
  0000                00146         extern  _PORTB
  0000                00147         extern  _PORTC
  0000                00148         extern  _PORTE
  0000                00149         extern  _LATA
  0000                00150         extern  _LATB
  0000                00151         extern  _LATC
  0000                00152         extern  _DDRA
  0000                00153         extern  _TRISA
  0000                00154         extern  _DDRB
  0000                00155         extern  _TRISB
gpasm-1.4.0 #1107 (Feb 13 2015)      main.asm   4-21-2015  23:49:51         PAGE  4


LOC    OBJECT CODE    LINE  SOURCE TEXT
  VALUE

  0000                00156         extern  _DDRC
  0000                00157         extern  _TRISC
  0000                00158         extern  _OSCTUNE
  0000                00159         extern  _PIE1
  0000                00160         extern  _PIR1
  0000                00161         extern  _IPR1
  0000                00162         extern  _PIE2
  0000                00163         extern  _PIR2
  0000                00164         extern  _IPR2
  0000                00165         extern  _EECON1
  0000                00166         extern  _EECON2
  0000                00167         extern  _EEDATA
  0000                00168         extern  _EEADR
  0000                00169         extern  _RCSTA
  0000                00170         extern  _TXSTA
  0000                00171         extern  _TXREG
  0000                00172         extern  _RCREG
  0000                00173         extern  _SPBRG
  0000                00174         extern  _SPBRGH
  0000                00175         extern  _T3CON
  0000                00176         extern  _TMR3
  0000                00177         extern  _TMR3L
  0000                00178         extern  _TMR3H
  0000                00179         extern  _CMCON
  0000                00180         extern  _CVRCON
  0000                00181         extern  _CCP1AS
  0000                00182         extern  _ECCP1AS
  0000                00183         extern  _CCP1DEL
  0000                00184         extern  _ECCP1DEL
  0000                00185         extern  _BAUDCON
  0000                00186         extern  _BAUDCTL
  0000                00187         extern  _CCP2CON
  0000                00188         extern  _CCPR2
  0000                00189         extern  _CCPR2L
  0000                00190         extern  _CCPR2H
  0000                00191         extern  _CCP1CON
  0000                00192         extern  _CCPR1
  0000                00193         extern  _CCPR1L
  0000                00194         extern  _CCPR1H
  0000                00195         extern  _ADCON2
  0000                00196         extern  _ADCON1
  0000                00197         extern  _ADCON0
  0000                00198         extern  _ADRES
  0000                00199         extern  _ADRESL
  0000                00200         extern  _ADRESH
  0000                00201         extern  _SSPCON2
  0000                00202         extern  _SSPCON1
  0000                00203         extern  _SSPSTAT
  0000                00204         extern  _SSPADD
  0000                00205         extern  _SSPBUF
  0000                00206         extern  _T2CON
  0000                00207         extern  _PR2
  0000                00208         extern  _TMR2
gpasm-1.4.0 #1107 (Feb 13 2015)      main.asm   4-21-2015  23:49:51         PAGE  5


LOC    OBJECT CODE    LINE  SOURCE TEXT
  VALUE

  0000                00209         extern  _T1CON
  0000                00210         extern  _TMR1
  0000                00211         extern  _TMR1L
  0000                00212         extern  _TMR1H
  0000                00213         extern  _RCON
  0000                00214         extern  _WDTCON
  0000                00215         extern  _HLVDCON
  0000                00216         extern  _LVDCON
  0000                00217         extern  _OSCCON
  0000                00218         extern  _T0CON
  0000                00219         extern  _TMR0
  0000                00220         extern  _TMR0L
  0000                00221         extern  _TMR0H
  0000                00222         extern  _STATUS
  0000                00223         extern  _FSR2L
  0000                00224         extern  _FSR2H
  0000                00225         extern  _PLUSW2
  0000                00226         extern  _PREINC2
  0000                00227         extern  _POSTDEC2
  0000                00228         extern  _POSTINC2
  0000                00229         extern  _INDF2
  0000                00230         extern  _BSR
  0000                00231         extern  _FSR1L
  0000                00232         extern  _FSR1H
  0000                00233         extern  _PLUSW1
  0000                00234         extern  _PREINC1
  0000                00235         extern  _POSTDEC1
  0000                00236         extern  _POSTINC1
  0000                00237         extern  _INDF1
  0000                00238         extern  _WREG
  0000                00239         extern  _FSR0L
  0000                00240         extern  _FSR0H
  0000                00241         extern  _PLUSW0
  0000                00242         extern  _PREINC0
  0000                00243         extern  _POSTDEC0
  0000                00244         extern  _POSTINC0
  0000                00245         extern  _INDF0
  0000                00246         extern  _INTCON3
  0000                00247         extern  _INTCON2
  0000                00248         extern  _INTCON
  0000                00249         extern  _PROD
  0000                00250         extern  _PRODL
  0000                00251         extern  _PRODH
  0000                00252         extern  _TABLAT
  0000                00253         extern  _TBLPTR
  0000                00254         extern  _TBLPTRL
  0000                00255         extern  _TBLPTRH
  0000                00256         extern  _TBLPTRU
  0000                00257         extern  _PC
  0000                00258         extern  _PCL
  0000                00259         extern  _PCLATH
  0000                00260         extern  _PCLATU
  0000                00261         extern  _STKPTR
gpasm-1.4.0 #1107 (Feb 13 2015)      main.asm   4-21-2015  23:49:51         PAGE  6


LOC    OBJECT CODE    LINE  SOURCE TEXT
  VALUE

  0000                00262         extern  _TOS
  0000                00263         extern  _TOSL
  0000                00264         extern  _TOSH
  0000                00265         extern  _TOSU
  0000                00266         extern  _delay10ktcy
  0000                00267         extern  _usart_open
  0000                00268         extern  _usart_getc
  0000                00269         extern  _usart_putc
  0000                00270         extern  _USB_service
                      00271 
                      00272 ;--------------------------------------------------------
                      00273 ;       Equates to used internal registers
                      00274 ;--------------------------------------------------------
  00000FD8            00275 STATUS  equ     0xfd8
  00000FFA            00276 PCLATH  equ     0xffa
  00000FFB            00277 PCLATU  equ     0xffb
  00000FE8            00278 WREG    equ     0xfe8
  00000FE0            00279 BSR     equ     0xfe0
  00000FE9            00280 FSR0L   equ     0xfe9
  00000FEA            00281 FSR0H   equ     0xfea
  00000FE1            00282 FSR1L   equ     0xfe1
  00000FD9            00283 FSR2L   equ     0xfd9
  00000FEF            00284 INDF0   equ     0xfef
  00000FE6            00285 POSTINC1        equ     0xfe6
  00000FE5            00286 POSTDEC1        equ     0xfe5
  00000FE4            00287 PREINC1 equ     0xfe4
  00000FDB            00288 PLUSW2  equ     0xfdb
  00000FF3            00289 PRODL   equ     0xff3
  00000FF4            00290 PRODH   equ     0xff4
                      00291 
                      00292 
                      00293         idata
000000 F9             00294 _timer_speed_H  db      0xf9
000001 FF             00295 _timer_speed_L  db      0xff
000002 00             00296 _timer_interrupt_pos_1_33       db      0x00
                      00297 
                      00298 
                      00299 ; Internal registers
                      00300 .registers      udata_ovr       0x0000
000000                00301 r0x00   res     1
000001                00302 r0x01   res     1
000002                00303 r0x02   res     1
000003                00304 r0x03   res     1
000004                00305 r0x04   res     1
000005                00306 r0x05   res     1
000006                00307 r0x06   res     1
000007                00308 r0x07   res     1
000008                00309 r0x08   res     1
000009                00310 r0x09   res     1
                      00311 
                      00312 udata_main_0    udata
000000                00313 _state  res     3
                      00314 
gpasm-1.4.0 #1107 (Feb 13 2015)      main.asm   4-21-2015  23:49:51         PAGE  7


LOC    OBJECT CODE    LINE  SOURCE TEXT
  VALUE

                      00315 ;--------------------------------------------------------
                      00316 ; interrupt vector
                      00317 ;--------------------------------------------------------
                      00318 
                      00319 ;--------------------------------------------------------
                      00320 ; global & static initialisations
                      00321 ;--------------------------------------------------------
                      00322 ; ; Starting pCode block for absolute section
                      00323 ; ;-----------------------------------------
                      00324 S_main_ivec_0x1_high_interrupt  code    0X000008
000008                00325 ivec_0x1_high_interrupt:
000008 EF00 F000      00326         GOTO    _high_interrupt
                      00327 
                      00328 ; ; Starting pCode block for absolute section
                      00329 ; ;-----------------------------------------
                      00330 S_main_ivec_0x2_low_interrupt   code    0X000018
000018                00331 ivec_0x2_low_interrupt:
000018 EF00 F000      00332         GOTO    _low_interrupt
                      00333 
                      00334 ; I code from now on!
                      00335 ; ; Starting pCode block
                      00336 S_main__main    code
000000                00337 _main:
                      00338         .line   65; main.c      ADCON0=0x00; // turn off analog to digital conversion module
Message[1301]: Using default destination of 0 (Access Bank).
000000 6A??           00339         CLRF    _ADCON0
                      00340         .line   66; main.c      ADCON1=0x0f; // set all analog to digital conversion module inputs as di
                            gital inputs/outputs
000002 0E0F           00341         MOVLW   0x0f
Message[1301]: Using default destination of 0 (Access Bank).
000004 6E??           00342         MOVWF   _ADCON1
                      00343         .line   67; main.c      CMCON=0x07; // turn off comparator module
000006 0E07           00344         MOVLW   0x07
Message[1301]: Using default destination of 0 (Access Bank).
000008 6E??           00345         MOVWF   _CMCON
                      00346         .line   70; main.c      PORTA=0x00;
Message[1301]: Using default destination of 0 (Access Bank).
00000A 6A??           00347         CLRF    _PORTA
                      00348         .line   71; main.c      LATA=0x00;
Message[1301]: Using default destination of 0 (Access Bank).
00000C 6A??           00349         CLRF    _LATA
                      00350         .line   72; main.c      TRISA=0x00;
Message[1301]: Using default destination of 0 (Access Bank).
00000E 6A??           00351         CLRF    _TRISA
                      00352         .line   75; main.c      PORTB=0x00;
Message[1301]: Using default destination of 0 (Access Bank).
000010 6A??           00353         CLRF    _PORTB
                      00354         .line   76; main.c      LATB=0x00;
Message[1301]: Using default destination of 0 (Access Bank).
000012 6A??           00355         CLRF    _LATB
                      00356         .line   77; main.c      TRISB=0x00;
Message[1301]: Using default destination of 0 (Access Bank).
000014 6A??           00357         CLRF    _TRISB
gpasm-1.4.0 #1107 (Feb 13 2015)      main.asm   4-21-2015  23:49:51         PAGE  8


LOC    OBJECT CODE    LINE  SOURCE TEXT
  VALUE

                      00358         .line   80; main.c      PORTC=0x00;
Message[1301]: Using default destination of 0 (Access Bank).
000016 6A??           00359         CLRF    _PORTC
                      00360         .line   81; main.c      LATC=0x00;
Message[1301]: Using default destination of 0 (Access Bank).
000018 6A??           00361         CLRF    _LATC
                      00362         .line   82; main.c      TRISC=0x00;
Message[1301]: Using default destination of 0 (Access Bank).
00001A 6A??           00363         CLRF    _TRISC
                      00364         .line   84; main.c      for(i=0; i<ROWS;i++)
Message[1301]: Using default destination of 0 (Access Bank).
00001C 6A??           00365         CLRF    r0x00
00001E                00366 _00328_DS_:
                      00367         .line   85; main.c      state[i] = 0;
00001E 0E??           00368         MOVLW   LOW(_state)
000020 24??           00369         ADDWF   r0x00, W
Message[1301]: Using default destination of 0 (Access Bank).
000022 6E??           00370         MOVWF   r0x01
Message[1301]: Using default destination of 0 (Access Bank).
000024 6A??           00371         CLRF    r0x02
000026 0E??           00372         MOVLW   HIGH(_state)
000028 22??           00373         ADDWFC  r0x02, F
00002A C??? F???      00374         MOVFF   r0x01, FSR0L
00002E C??? F???      00375         MOVFF   r0x02, FSR0H
000032 0E00           00376         MOVLW   0x00
Message[1301]: Using default destination of 0 (Access Bank).
000034 6EEF           00377         MOVWF   INDF0
                      00378         .line   84; main.c      for(i=0; i<ROWS;i++)
000036 2A??           00379         INCF    r0x00, F
000038 0E03           00380         MOVLW   0x03
00003A 5C??           00381         SUBWF   r0x00, W
00003C E3??           00382         BNC     _00328_DS_
                      00383         .line   245; main.c     serial_init();
00003E EC?? F0??      00384         CALL    _serial_init
                      00385         .line   248; main.c     T1CON=0b10000001;
000042 0E81           00386         MOVLW   0x81
Message[1301]: Using default destination of 0 (Access Bank).
000044 6E??           00387         MOVWF   _T1CON
                      00388         .line   278; main.c     PIR1bits.TMR1IF = 0; /* timer0 clear interrupt flag */ 
000046 90??           00389         BCF     _PIR1bits, 0
                      00390         .line   279; main.c     PIE1bits.TMR1IE = 1; /* timer0 rnable interrupt */ 
000048 80??           00391         BSF     _PIE1bits, 0
                      00392         .line   280; main.c     IPR1bits.TMR1IP = 1; /* timer0 high interrupt */
00004A 80??           00393         BSF     _IPR1bits, 0
                      00394         .line   281; main.c     TMR1H = 0xff;
00004C 0EFF           00395         MOVLW   0xff
Message[1301]: Using default destination of 0 (Access Bank).
00004E 6E??           00396         MOVWF   _TMR1H
                      00397         .line   282; main.c     TMR1L = 0xf0;
000050 0EF0           00398         MOVLW   0xf0
Message[1301]: Using default destination of 0 (Access Bank).
000052 6E??           00399         MOVWF   _TMR1L
                      00400         .line   288; main.c     PORTB = 0xff;
gpasm-1.4.0 #1107 (Feb 13 2015)      main.asm   4-21-2015  23:49:51         PAGE  9


LOC    OBJECT CODE    LINE  SOURCE TEXT
  VALUE

000054 0EFF           00401         MOVLW   0xff
Message[1301]: Using default destination of 0 (Access Bank).
000056 6E??           00402         MOVWF   _PORTB
                      00403         .line   289; main.c     PORTC = 0xff;
000058 0EFF           00404         MOVLW   0xff
Message[1301]: Using default destination of 0 (Access Bank).
00005A 6E??           00405         MOVWF   _PORTC
                      00406         .line   290; main.c     delay10ktcy(10);
00005C 0E0A           00407         MOVLW   0x0a
00005E EC?? F0??      00408         CALL    _delay10ktcy
                      00409         .line   292; main.c     USB_init_in_configured_state();
Error[113]  : Symbol not previously defined: "_USB_init_in_configured_state"
Error[113]  : Symbol not previously defined: "_USB_init_in_configured_state"
000062 EC00 F000      00410         CALL    _USB_init_in_configured_state
                      00411         .line   293; main.c     USB_interrupt_priority_high();
000066 8A??           00412         BSF     _IPR2bits, 5
                      00413         .line   294; main.c     USB_interrupt_enable();
000068 8A??           00414         BSF     _PIE2bits, 5
                      00415         .line   296; main.c     RCONbits.IPEN = 1; /* Enable priority levels on interrupts */
00006A 8E??           00416         BSF     _RCONbits, 7
                      00417         .line   297; main.c     INTCONbits.GIEH = 1; /* Enables all high priority interrupts */
00006C 8E??           00418         BSF     _INTCONbits, 7
                      00419         .line   298; main.c     OSCCONbits.IDLEN = 1; /* Device enters Idle mode on SLEEP instruction (P
                            RI_IDLE mode) */
00006E 8E??           00420         BSF     _OSCCONbits, 7
                      00421         .line   305; main.c     set_state_10(0x01, 0x01, 0x01);
000070 0E01           00422         MOVLW   0x01
000072 ????           00423         BANKSEL _state
000074 6F??           00424         MOVWF   _state, B
000076 0E01           00425         MOVLW   0x01
000078 ????           00426         BANKSEL (_state + 1)
00007A 6F??           00427         MOVWF   (_state + 1), B
00007C 0E01           00428         MOVLW   0x01
00007E ????           00429         BANKSEL (_state + 2)
000080 6F??           00430         MOVWF   (_state + 2), B
000082 0E05           00431         MOVLW   0x05
000084 EC?? F0??      00432         CALL    _delay10ktcy
000088                00433 _00331_DS_:
                      00434         .line   306; main.c     for(i=0;;i++) {
000088 D???           00435         BRA     _00331_DS_
00008A 0012           00436         RETURN  
                      00437 
                      00438 ; ; Starting pCode block
                      00439 S_main__clear   code
000000                00440 _clear:
                      00441         .line   235; main.c     void clear() {
000000 CFD9 FFE5      00442         MOVFF   FSR2L, POSTDEC1
000004 CFE1 FFD9      00443         MOVFF   FSR1L, FSR2L
000008 C??? F???      00444         MOVFF   r0x00, POSTDEC1
00000C C??? F???      00445         MOVFF   r0x01, POSTDEC1
000010 C??? F???      00446         MOVFF   r0x02, POSTDEC1
                      00447         .line   237; main.c     for(i=0;i<ROWS;i++)
Message[1301]: Using default destination of 0 (Access Bank).
gpasm-1.4.0 #1107 (Feb 13 2015)      main.asm   4-21-2015  23:49:51         PAGE 10


LOC    OBJECT CODE    LINE  SOURCE TEXT
  VALUE

000014 6A??           00448         CLRF    r0x00
000016                00449 _00306_DS_:
                      00450         .line   238; main.c     state[i] = 0;
000016 0E??           00451         MOVLW   LOW(_state)
000018 24??           00452         ADDWF   r0x00, W
Message[1301]: Using default destination of 0 (Access Bank).
00001A 6E??           00453         MOVWF   r0x01
Message[1301]: Using default destination of 0 (Access Bank).
00001C 6A??           00454         CLRF    r0x02
00001E 0E??           00455         MOVLW   HIGH(_state)
000020 22??           00456         ADDWFC  r0x02, F
000022 C??? F???      00457         MOVFF   r0x01, FSR0L
000026 C??? F???      00458         MOVFF   r0x02, FSR0H
00002A 0E00           00459         MOVLW   0x00
Message[1301]: Using default destination of 0 (Access Bank).
00002C 6EEF           00460         MOVWF   INDF0
                      00461         .line   237; main.c     for(i=0;i<ROWS;i++)
00002E 2A??           00462         INCF    r0x00, F
000030 0E03           00463         MOVLW   0x03
000032 5C??           00464         SUBWF   r0x00, W
000034 E3??           00465         BNC     _00306_DS_
000036 CFE4 F000      00466         MOVFF   PREINC1, r0x02
00003A CFE4 F000      00467         MOVFF   PREINC1, r0x01
00003E CFE4 F000      00468         MOVFF   PREINC1, r0x00
000042 CFE4 FFD9      00469         MOVFF   PREINC1, FSR2L
000046 0012           00470         RETURN  
                      00471 
                      00472 ; ; Starting pCode block
                      00473 S_main__process code
000000                00474 _process:
                      00475         .line   222; main.c     void process(unsigned char *str)
000000 CFD9 FFE5      00476         MOVFF   FSR2L, POSTDEC1
000004 CFE1 FFD9      00477         MOVFF   FSR1L, FSR2L
000008 C??? F???      00478         MOVFF   r0x00, POSTDEC1
00000C C??? F???      00479         MOVFF   r0x01, POSTDEC1
000010 C??? F???      00480         MOVFF   r0x02, POSTDEC1
000014 C??? F???      00481         MOVFF   r0x03, POSTDEC1
000018 C??? F???      00482         MOVFF   r0x04, POSTDEC1
00001C C??? F???      00483         MOVFF   r0x05, POSTDEC1
000020 C??? F???      00484         MOVFF   r0x06, POSTDEC1
000024 C??? F???      00485         MOVFF   r0x07, POSTDEC1
000028 C??? F???      00486         MOVFF   r0x08, POSTDEC1
00002C C??? F???      00487         MOVFF   r0x09, POSTDEC1
000030 0E02           00488         MOVLW   0x02
000032 CFDB F000      00489         MOVFF   PLUSW2, r0x00
000036 0E03           00490         MOVLW   0x03
000038 CFDB F000      00491         MOVFF   PLUSW2, r0x01
00003C 0E04           00492         MOVLW   0x04
00003E CFDB F000      00493         MOVFF   PLUSW2, r0x02
                      00494         .line   225; main.c     unsigned char save = 3;
000042 0E03           00495         MOVLW   0x03
Message[1301]: Using default destination of 0 (Access Bank).
000044 6E??           00496         MOVWF   r0x03
gpasm-1.4.0 #1107 (Feb 13 2015)      main.asm   4-21-2015  23:49:51         PAGE 11


LOC    OBJECT CODE    LINE  SOURCE TEXT
  VALUE

                      00497         .line   226; main.c     for(i=0;str[i]!='\0';i++) {
Message[1301]: Using default destination of 0 (Access Bank).
000046 6A??           00498         CLRF    r0x04
000048                00499 _00280_DS_:
000048 50??           00500         MOVF    r0x04, W
00004A 24??           00501         ADDWF   r0x00, W
Message[1301]: Using default destination of 0 (Access Bank).
00004C 6E??           00502         MOVWF   r0x05
Message[1301]: Using default destination of 0 (Access Bank).
00004E 6AE8           00503         CLRF    WREG
000050 20??           00504         ADDWFC  r0x01, W
Message[1301]: Using default destination of 0 (Access Bank).
000052 6E??           00505         MOVWF   r0x06
Message[1301]: Using default destination of 0 (Access Bank).
000054 6AE8           00506         CLRF    WREG
000056 20??           00507         ADDWFC  r0x02, W
Message[1301]: Using default destination of 0 (Access Bank).
000058 6E??           00508         MOVWF   r0x07
00005A C??? F???      00509         MOVFF   r0x05, FSR0L
00005E C??? F???      00510         MOVFF   r0x06, PRODL
000062 50??           00511         MOVF    r0x07, W
000064 EC?? F0??      00512         CALL    __gptrget1
Message[1301]: Using default destination of 0 (Access Bank).
000068 6E??           00513         MOVWF   r0x05
00006A 50??           00514         MOVF    r0x05, W
00006C E0??           00515         BZ      _00281_DS_
                      00516         .line   227; main.c     if ( save == 3 ) {
00006E 50??           00517         MOVF    r0x03, W
000070 0A03           00518         XORLW   0x03
000072 E1??           00519         BNZ     _00274_DS_
                      00520         .line   228; main.c     save = str[i]-'0';
000074 50??           00521         MOVF    r0x05, W
Message[1301]: Using default destination of 0 (Access Bank).
000076 6E??           00522         MOVWF   r0x06
000078 0ED0           00523         MOVLW   0xd0
00007A 24??           00524         ADDWF   r0x06, W
Message[1301]: Using default destination of 0 (Access Bank).
00007C 6E??           00525         MOVWF   r0x03
                      00526         .line   229; main.c     continue;
00007E D???           00527         BRA     _00277_DS_
000080                00528 _00274_DS_:
                      00529         .line   231; main.c     toggle_bit(str[i]-'0', state[save]);
000080 0E??           00530         MOVLW   LOW(_state)
000082 24??           00531         ADDWF   r0x03, W
Message[1301]: Using default destination of 0 (Access Bank).
000084 6E??           00532         MOVWF   r0x06
Message[1301]: Using default destination of 0 (Access Bank).
000086 6A??           00533         CLRF    r0x07
000088 0E??           00534         MOVLW   HIGH(_state)
00008A 22??           00535         ADDWFC  r0x07, F
00008C C??? F???      00536         MOVFF   r0x06, FSR0L
000090 C??? F???      00537         MOVFF   r0x07, FSR0H
000094 CFEF F000      00538         MOVFF   INDF0, r0x08
gpasm-1.4.0 #1107 (Feb 13 2015)      main.asm   4-21-2015  23:49:51         PAGE 12


LOC    OBJECT CODE    LINE  SOURCE TEXT
  VALUE

000098 0ED0           00539         MOVLW   0xd0
00009A 26??           00540         ADDWF   r0x05, F
00009C 0E01           00541         MOVLW   0x01
Message[1301]: Using default destination of 0 (Access Bank).
00009E 6E??           00542         MOVWF   r0x09
0000A0 50??           00543         MOVF    r0x05, W
0000A2 E0??           00544         BZ      _00297_DS_
0000A4 E6??           00545         BN      _00300_DS_
Message[1301]: Using default destination of 0 (Access Bank).
0000A6 6CE8           00546         NEGF    WREG
0000A8 90D8           00547         BCF     STATUS, 0
0000AA                00548 _00298_DS_:
0000AA 36??           00549         RLCF    r0x09, F
0000AC 0F01           00550         ADDLW   0x01
0000AE E3??           00551         BNC     _00298_DS_
0000B0 D???           00552         BRA     _00297_DS_
0000B2                00553 _00300_DS_:
0000B2 90D8           00554         BCF     STATUS, 0
0000B4                00555 _00299_DS_:
0000B4 32??           00556         RRCF    r0x09, F
0000B6 0F01           00557         ADDLW   0x01
0000B8 E3??           00558         BNC     _00299_DS_
0000BA                00559 _00297_DS_:
0000BA 50??           00560         MOVF    r0x09, W
Message[1301]: Using default destination of 0 (Access Bank).
0000BC 6E??           00561         MOVWF   r0x05
0000BE 50??           00562         MOVF    r0x05, W
0000C0 1A??           00563         XORWF   r0x08, F
0000C2 C??? F???      00564         MOVFF   r0x06, FSR0L
0000C6 C??? F???      00565         MOVFF   r0x07, FSR0H
0000CA C??? F???      00566         MOVFF   r0x08, INDF0
                      00567         .line   232; main.c     save = 3;
0000CE 0E03           00568         MOVLW   0x03
Message[1301]: Using default destination of 0 (Access Bank).
0000D0 6E??           00569         MOVWF   r0x03
0000D2                00570 _00277_DS_:
                      00571         .line   226; main.c     for(i=0;str[i]!='\0';i++) {
0000D2 2A??           00572         INCF    r0x04, F
0000D4 D???           00573         BRA     _00280_DS_
0000D6                00574 _00281_DS_:
0000D6 CFE4 F000      00575         MOVFF   PREINC1, r0x09
0000DA CFE4 F000      00576         MOVFF   PREINC1, r0x08
0000DE CFE4 F000      00577         MOVFF   PREINC1, r0x07
0000E2 CFE4 F000      00578         MOVFF   PREINC1, r0x06
0000E6 CFE4 F000      00579         MOVFF   PREINC1, r0x05
0000EA CFE4 F000      00580         MOVFF   PREINC1, r0x04
0000EE CFE4 F000      00581         MOVFF   PREINC1, r0x03
0000F2 CFE4 F000      00582         MOVFF   PREINC1, r0x02
0000F6 CFE4 F000      00583         MOVFF   PREINC1, r0x01
0000FA CFE4 F000      00584         MOVFF   PREINC1, r0x00
0000FE CFE4 FFD9      00585         MOVFF   PREINC1, FSR2L
000102 0012           00586         RETURN  
                      00587 
gpasm-1.4.0 #1107 (Feb 13 2015)      main.asm   4-21-2015  23:49:51         PAGE 13


LOC    OBJECT CODE    LINE  SOURCE TEXT
  VALUE

                      00588 ; ; Starting pCode block
                      00589 S_main__low_interrupt   code
000000                00590 _low_interrupt:
                      00591         .line   210; main.c     static void low_interrupt(void) __interrupt(2)
000000 CFD8 FFE5      00592         MOVFF   STATUS, POSTDEC1
000004 CFE0 FFE5      00593         MOVFF   BSR, POSTDEC1
Message[1301]: Using default destination of 0 (Access Bank).
000008 6EE5           00594         MOVWF   POSTDEC1
00000A CFF3 FFE5      00595         MOVFF   PRODL, POSTDEC1
00000E CFF4 FFE5      00596         MOVFF   PRODH, POSTDEC1
000012 CFE9 FFE5      00597         MOVFF   FSR0L, POSTDEC1
000016 CFEA FFE5      00598         MOVFF   FSR0H, POSTDEC1
00001A CFFA FFE5      00599         MOVFF   PCLATH, POSTDEC1
00001E CFFB FFE5      00600         MOVFF   PCLATU, POSTDEC1
000022 CFD9 FFE5      00601         MOVFF   FSR2L, POSTDEC1
000026 CFE1 FFD9      00602         MOVFF   FSR1L, FSR2L
00002A                00603 _00264_DS_:
                      00604         .line   212; main.c     USB_interrupt_service();
00002A 9A??           00605         BCF     _PIR2bits, 5
00002C EC?? F0??      00606         CALL    _USB_service
000030 BA??           00607         BTFSC   _PIR2bits, 5
000032 D???           00608         BRA     _00264_DS_
000034 CFE4 FFD9      00609         MOVFF   PREINC1, FSR2L
000038 CFE4 FFFB      00610         MOVFF   PREINC1, PCLATU
00003C CFE4 FFFA      00611         MOVFF   PREINC1, PCLATH
000040 CFE4 FFEA      00612         MOVFF   PREINC1, FSR0H
000044 CFE4 FFE9      00613         MOVFF   PREINC1, FSR0L
000048 CFE4 FFF4      00614         MOVFF   PREINC1, PRODH
00004C CFE4 FFF3      00615         MOVFF   PREINC1, PRODL
000050 50E4           00616         MOVF    PREINC1, W
000052 CFE4 FFE0      00617         MOVFF   PREINC1, BSR
000056 CFE4 FFD8      00618         MOVFF   PREINC1, STATUS
00005A 0010           00619         RETFIE  
                      00620 
                      00621 ; ; Starting pCode block
                      00622 S_main__high_interrupt  code
000000                00623 _high_interrupt:
                      00624         .line   201; main.c     static void high_interrupt(void) __interrupt(1)
000000 CFD8 FFE5      00625         MOVFF   STATUS, POSTDEC1
000004 CFE0 FFE5      00626         MOVFF   BSR, POSTDEC1
Message[1301]: Using default destination of 0 (Access Bank).
000008 6EE5           00627         MOVWF   POSTDEC1
00000A CFF3 FFE5      00628         MOVFF   PRODL, POSTDEC1
00000E CFF4 FFE5      00629         MOVFF   PRODH, POSTDEC1
000012 CFE9 FFE5      00630         MOVFF   FSR0L, POSTDEC1
000016 CFEA FFE5      00631         MOVFF   FSR0H, POSTDEC1
00001A CFFA FFE5      00632         MOVFF   PCLATH, POSTDEC1
00001E CFFB FFE5      00633         MOVFF   PCLATU, POSTDEC1
000022 CFD9 FFE5      00634         MOVFF   FSR2L, POSTDEC1
000026 CFE1 FFD9      00635         MOVFF   FSR1L, FSR2L
                      00636         .line   203; main.c     if ( PIR1bits.TMR1IF ) {
00002A A0??           00637         BTFSS   _PIR1bits, 0
00002C D???           00638         BRA     _00256_DS_
gpasm-1.4.0 #1107 (Feb 13 2015)      main.asm   4-21-2015  23:49:51         PAGE 14


LOC    OBJECT CODE    LINE  SOURCE TEXT
  VALUE

                      00639         .line   204; main.c     PIR1bits.TMR1IF = 0;
00002E 90??           00640         BCF     _PIR1bits, 0
                      00641         .line   205; main.c     timer_interrupt();
000030 EC?? F0??      00642         CALL    _timer_interrupt
000034                00643 _00256_DS_:
                      00644         .line   207; main.c     USB_interrupt_service();
000034 9A??           00645         BCF     _PIR2bits, 5
000036 EC?? F0??      00646         CALL    _USB_service
00003A BA??           00647         BTFSC   _PIR2bits, 5
00003C D???           00648         BRA     _00256_DS_
00003E CFE4 FFD9      00649         MOVFF   PREINC1, FSR2L
000042 CFE4 FFFB      00650         MOVFF   PREINC1, PCLATU
000046 CFE4 FFFA      00651         MOVFF   PREINC1, PCLATH
00004A CFE4 FFEA      00652         MOVFF   PREINC1, FSR0H
00004E CFE4 FFE9      00653         MOVFF   PREINC1, FSR0L
000052 CFE4 FFF4      00654         MOVFF   PREINC1, PRODH
000056 CFE4 FFF3      00655         MOVFF   PREINC1, PRODL
00005A 50E4           00656         MOVF    PREINC1, W
00005C CFE4 FFE0      00657         MOVFF   PREINC1, BSR
000060 CFE4 FFD8      00658         MOVFF   PREINC1, STATUS
000064 0010           00659         RETFIE  
                      00660 
                      00661 ; ; Starting pCode block
                      00662 S_main__timer_interrupt code
000000                00663 _timer_interrupt:
                      00664         .line   161; main.c     static void timer_interrupt()
000000 CFD9 FFE5      00665         MOVFF   FSR2L, POSTDEC1
000004 CFE1 FFD9      00666         MOVFF   FSR1L, FSR2L
000008 C??? F???      00667         MOVFF   r0x00, POSTDEC1
00000C C??? F???      00668         MOVFF   r0x01, POSTDEC1
                      00669         .line   166; main.c     TMR1H = timer_speed_H;
000010 C??? F???      00670         MOVFF   _timer_speed_H, _TMR1H
                      00671         .line   167; main.c     TMR1L = timer_speed_L;
000014 C??? F???      00672         MOVFF   _timer_speed_L, _TMR1L
                      00673         .line   171; main.c     PORTB = 0x00;
Message[1301]: Using default destination of 0 (Access Bank).
000018 6A??           00674         CLRF    _PORTB
                      00675         .line   172; main.c     PORTCbits.RC0 = 0;
00001A 90??           00676         BCF     _PORTCbits, 0
                      00677         .line   173; main.c     PORTCbits.RC1 = 0;
00001C 92??           00678         BCF     _PORTCbits, 1
                      00679         .line   174; main.c     PORTCbits.RC2 = 0;
00001E 94??           00680         BCF     _PORTCbits, 2
                      00681         .line   175; main.c     PORTCbits.RC4 = 0;
000020 98??           00682         BCF     _PORTCbits, 4
                      00683         .line   176; main.c     PORTCbits.RC5 = 0;
000022 9A??           00684         BCF     _PORTCbits, 5
000024 ????           00685         BANKSEL _timer_interrupt_pos_1_33
                      00686         .line   179; main.c     if ( pos == 0 ) {
000026 51??           00687         MOVF    _timer_interrupt_pos_1_33, W, B
000028 E1??           00688         BNZ     _00222_DS_
                      00689         .line   180; main.c     PORTCbits.RC0 = 1;
00002A 80??           00690         BSF     _PORTCbits, 0
gpasm-1.4.0 #1107 (Feb 13 2015)      main.asm   4-21-2015  23:49:51         PAGE 15


LOC    OBJECT CODE    LINE  SOURCE TEXT
  VALUE

00002C D???           00691         BRA     _00223_DS_
00002E                00692 _00222_DS_:
00002E ????           00693         BANKSEL _timer_interrupt_pos_1_33
                      00694         .line   181; main.c     } else if ( pos == 1 ) {
000030 51??           00695         MOVF    _timer_interrupt_pos_1_33, W, B
000032 0A01           00696         XORLW   0x01
000034 E1??           00697         BNZ     _00219_DS_
                      00698         .line   182; main.c     PORTCbits.RC1 = 1;
000036 82??           00699         BSF     _PORTCbits, 1
000038 D???           00700         BRA     _00223_DS_
00003A                00701 _00219_DS_:
00003A ????           00702         BANKSEL _timer_interrupt_pos_1_33
                      00703         .line   183; main.c     } else if ( pos == 2 ) {
00003C 51??           00704         MOVF    _timer_interrupt_pos_1_33, W, B
00003E 0A02           00705         XORLW   0x02
000040 E1??           00706         BNZ     _00216_DS_
                      00707         .line   184; main.c     PORTCbits.RC2 = 1;
000042 84??           00708         BSF     _PORTCbits, 2
000044 D???           00709         BRA     _00223_DS_
000046                00710 _00216_DS_:
000046 ????           00711         BANKSEL _timer_interrupt_pos_1_33
                      00712         .line   185; main.c     } else if (pos == 3) {
000048 51??           00713         MOVF    _timer_interrupt_pos_1_33, W, B
00004A 0A03           00714         XORLW   0x03
00004C E1??           00715         BNZ     _00213_DS_
                      00716         .line   186; main.c     PORTCbits.RC4 = 1;
00004E 88??           00717         BSF     _PORTCbits, 4
000050 D???           00718         BRA     _00223_DS_
000052                00719 _00213_DS_:
                      00720         .line   188; main.c     PORTCbits.RC5 = 1;
000052 8A??           00721         BSF     _PORTCbits, 5
000054                00722 _00223_DS_:
                      00723         .line   192; main.c     PORTB = state[pos];
000054 0E??           00724         MOVLW   LOW(_state)
000056 ????           00725         BANKSEL _timer_interrupt_pos_1_33
000058 25??           00726         ADDWF   _timer_interrupt_pos_1_33, W, B
Message[1301]: Using default destination of 0 (Access Bank).
00005A 6E??           00727         MOVWF   r0x00
Message[1301]: Using default destination of 0 (Access Bank).
00005C 6A??           00728         CLRF    r0x01
00005E 0E??           00729         MOVLW   HIGH(_state)
000060 22??           00730         ADDWFC  r0x01, F
000062 C??? F???      00731         MOVFF   r0x00, FSR0L
000066 C??? F???      00732         MOVFF   r0x01, FSR0H
00006A CFEF F000      00733         MOVFF   INDF0, _PORTB
00006E ????           00734         BANKSEL _timer_interrupt_pos_1_33
                      00735         .line   195; main.c     ++pos;
000070 2B??           00736         INCF    _timer_interrupt_pos_1_33, F, B
                      00737         .line   196; main.c     if ( pos >= ROWS )
000072 0E03           00738         MOVLW   0x03
000074 ????           00739         BANKSEL _timer_interrupt_pos_1_33
000076 5D??           00740         SUBWF   _timer_interrupt_pos_1_33, W, B
000078 E3??           00741         BNC     _00226_DS_
gpasm-1.4.0 #1107 (Feb 13 2015)      main.asm   4-21-2015  23:49:51         PAGE 16


LOC    OBJECT CODE    LINE  SOURCE TEXT
  VALUE

00007A ????           00742         BANKSEL _timer_interrupt_pos_1_33
                      00743         .line   197; main.c     pos = 0;
00007C 6B??           00744         CLRF    _timer_interrupt_pos_1_33, B
00007E                00745 _00226_DS_:
00007E CFE4 F000      00746         MOVFF   PREINC1, r0x01
000082 CFE4 F000      00747         MOVFF   PREINC1, r0x00
000086 CFE4 FFD9      00748         MOVFF   PREINC1, FSR2L
00008A 0012           00749         RETURN  
                      00750 
                      00751 ; ; Starting pCode block
                      00752 S_main__uart_process    code
000000                00753 _uart_process:
                      00754         .line   110; main.c     void uart_process()
000000 CFD9 FFE5      00755         MOVFF   FSR2L, POSTDEC1
000004 CFE1 FFD9      00756         MOVFF   FSR1L, FSR2L
000008 C??? F???      00757         MOVFF   r0x00, POSTDEC1
00000C C??? F???      00758         MOVFF   r0x01, POSTDEC1
000010 C??? F???      00759         MOVFF   r0x02, POSTDEC1
000014 C??? F???      00760         MOVFF   r0x03, POSTDEC1
000018 C??? F???      00761         MOVFF   r0x04, POSTDEC1
00001C C??? F???      00762         MOVFF   r0x05, POSTDEC1
000020 C??? F???      00763         MOVFF   r0x06, POSTDEC1
                      00764         .line   114; main.c     byte = usart_getc();
000024 EC?? F0??      00765         CALL    _usart_getc
Message[1301]: Using default destination of 0 (Access Bank).
000028 6E??           00766         MOVWF   r0x00
                      00767         .line   116; main.c     if ( byte == PR_CLEAR ) {
00002A 50??           00768         MOVF    r0x00, W
00002C 0A02           00769         XORLW   0x02
00002E E1??           00770         BNZ     _00145_DS_
                      00771         .line   117; main.c     for(byte2 = 0; byte2<ROWS; byte2++)
Message[1301]: Using default destination of 0 (Access Bank).
000030 6A??           00772         CLRF    r0x01
000032                00773 _00148_DS_:
                      00774         .line   118; main.c     state[byte2] = 0;
000032 0E??           00775         MOVLW   LOW(_state)
000034 24??           00776         ADDWF   r0x01, W
Message[1301]: Using default destination of 0 (Access Bank).
000036 6E??           00777         MOVWF   r0x02
Message[1301]: Using default destination of 0 (Access Bank).
000038 6A??           00778         CLRF    r0x03
00003A 0E??           00779         MOVLW   HIGH(_state)
00003C 22??           00780         ADDWFC  r0x03, F
00003E C??? F???      00781         MOVFF   r0x02, FSR0L
000042 C??? F???      00782         MOVFF   r0x03, FSR0H
000046 0E00           00783         MOVLW   0x00
Message[1301]: Using default destination of 0 (Access Bank).
000048 6EEF           00784         MOVWF   INDF0
                      00785         .line   117; main.c     for(byte2 = 0; byte2<ROWS; byte2++)
00004A 2A??           00786         INCF    r0x01, F
00004C 0E03           00787         MOVLW   0x03
00004E 5C??           00788         SUBWF   r0x01, W
000050 E3??           00789         BNC     _00148_DS_
gpasm-1.4.0 #1107 (Feb 13 2015)      main.asm   4-21-2015  23:49:51         PAGE 17


LOC    OBJECT CODE    LINE  SOURCE TEXT
  VALUE

000052 D???           00790         BRA     _00146_DS_
000054                00791 _00145_DS_:
                      00792         .line   120; main.c     byte2 = usart_getc();
000054 EC?? F0??      00793         CALL    _usart_getc
Message[1301]: Using default destination of 0 (Access Bank).
000058 6E??           00794         MOVWF   r0x01
                      00795         .line   122; main.c     if ( byte2 != byte )
00005A 50??           00796         MOVF    r0x01, W
00005C 18??           00797         XORWF   r0x00, W
00005E E0??           00798         BZ      _00190_DS_
000060 D???           00799         BRA     _00147_DS_
000062                00800 _00190_DS_:
                      00801         .line   126; main.c     switch(byte) {
000062 50??           00802         MOVF    r0x00, W
000064 0A01           00803         XORLW   0x01
000066 E1??           00804         BNZ     _00192_DS_
000068 D???           00805         BRA     _00146_DS_
00006A                00806 _00192_DS_:
00006A 50??           00807         MOVF    r0x00, W
00006C 0A03           00808         XORLW   0x03
00006E E0??           00809         BZ      _00130_DS_
000070 50??           00810         MOVF    r0x00, W
000072 0A04           00811         XORLW   0x04
000074 E1??           00812         BNZ     _00196_DS_
000076 D???           00813         BRA     _00136_DS_
000078                00814 _00196_DS_:
000078 50??           00815         MOVF    r0x00, W
00007A 0A05           00816         XORLW   0x05
00007C E1??           00817         BNZ     _00198_DS_
00007E D???           00818         BRA     _00139_DS_
000080                00819 _00198_DS_:
000080 D???           00820         BRA     _00146_DS_
000082                00821 _00130_DS_:
                      00822         .line   128; main.c     byte = usart_getc();
000082 EC?? F0??      00823         CALL    _usart_getc
Message[1301]: Using default destination of 0 (Access Bank).
000086 6E??           00824         MOVWF   r0x00
                      00825         .line   129; main.c     byte2 = usart_getc();
000088 EC?? F0??      00826         CALL    _usart_getc
Message[1301]: Using default destination of 0 (Access Bank).
00008C 6E??           00827         MOVWF   r0x01
                      00828         .line   130; main.c     if ( byte != byte2 )
00008E 50??           00829         MOVF    r0x00, W
000090 18??           00830         XORWF   r0x01, W
000092 E0??           00831         BZ      _00200_DS_
000094 D???           00832         BRA     _00147_DS_
000096                00833 _00200_DS_:
                      00834         .line   132; main.c     toggle_bit(byte%10, state[byte/10]);
000096 0E0A           00835         MOVLW   0x0a
Message[1301]: Using default destination of 0 (Access Bank).
000098 6EE5           00836         MOVWF   POSTDEC1
00009A C??? F???      00837         MOVFF   r0x00, POSTDEC1
00009E EC?? F0??      00838         CALL    __divuchar
gpasm-1.4.0 #1107 (Feb 13 2015)      main.asm   4-21-2015  23:49:51         PAGE 18


LOC    OBJECT CODE    LINE  SOURCE TEXT
  VALUE

Message[1301]: Using default destination of 0 (Access Bank).
0000A2 6E??           00839         MOVWF   r0x02
0000A4 50E4           00840         MOVF    PREINC1, W
0000A6 50E4           00841         MOVF    PREINC1, W
Message[1301]: Using default destination of 0 (Access Bank).
0000A8 6A??           00842         CLRF    r0x03
0000AA 0E??           00843         MOVLW   LOW(_state)
0000AC 26??           00844         ADDWF   r0x02, F
0000AE 0E??           00845         MOVLW   HIGH(_state)
0000B0 22??           00846         ADDWFC  r0x03, F
0000B2 C??? F???      00847         MOVFF   r0x02, FSR0L
0000B6 C??? F???      00848         MOVFF   r0x03, FSR0H
0000BA CFEF F000      00849         MOVFF   INDF0, r0x04
0000BE 0E0A           00850         MOVLW   0x0a
Message[1301]: Using default destination of 0 (Access Bank).
0000C0 6EE5           00851         MOVWF   POSTDEC1
0000C2 C??? F???      00852         MOVFF   r0x00, POSTDEC1
0000C6 EC?? F0??      00853         CALL    __moduchar
Message[1301]: Using default destination of 0 (Access Bank).
0000CA 6E??           00854         MOVWF   r0x05
0000CC 50E4           00855         MOVF    PREINC1, W
0000CE 50E4           00856         MOVF    PREINC1, W
0000D0 0E01           00857         MOVLW   0x01
Message[1301]: Using default destination of 0 (Access Bank).
0000D2 6E??           00858         MOVWF   r0x06
0000D4 50??           00859         MOVF    r0x05, W
0000D6 E0??           00860         BZ      _00201_DS_
Message[1301]: Using default destination of 0 (Access Bank).
0000D8 6CE8           00861         NEGF    WREG
0000DA 90D8           00862         BCF     STATUS, 0
0000DC                00863 _00202_DS_:
0000DC 36??           00864         RLCF    r0x06, F
0000DE 0F01           00865         ADDLW   0x01
0000E0 E3??           00866         BNC     _00202_DS_
0000E2                00867 _00201_DS_:
0000E2 50??           00868         MOVF    r0x06, W
0000E4 1A??           00869         XORWF   r0x04, F
0000E6 C??? F???      00870         MOVFF   r0x02, FSR0L
0000EA C??? F???      00871         MOVFF   r0x03, FSR0H
0000EE C??? F???      00872         MOVFF   r0x04, INDF0
                      00873         .line   133; main.c     break;
0000F2 D???           00874         BRA     _00146_DS_
0000F4                00875 _00136_DS_:
                      00876         .line   135; main.c     byte = usart_getc();
0000F4 EC?? F0??      00877         CALL    _usart_getc
Message[1301]: Using default destination of 0 (Access Bank).
0000F8 6E??           00878         MOVWF   r0x00
                      00879         .line   136; main.c     byte2 = usart_getc();
0000FA EC?? F0??      00880         CALL    _usart_getc
Message[1301]: Using default destination of 0 (Access Bank).
0000FE 6E??           00881         MOVWF   r0x01
                      00882         .line   137; main.c     if ( byte != byte2 )
000100 50??           00883         MOVF    r0x00, W
gpasm-1.4.0 #1107 (Feb 13 2015)      main.asm   4-21-2015  23:49:51         PAGE 19


LOC    OBJECT CODE    LINE  SOURCE TEXT
  VALUE

000102 18??           00884         XORWF   r0x01, W
000104 E1??           00885         BNZ     _00147_DS_
                      00886         .line   139; main.c     timer_speed_H = byte;
000106 C??? F???      00887         MOVFF   r0x00, _timer_speed_H
                      00888         .line   140; main.c     break;
00010A D???           00889         BRA     _00146_DS_
00010C                00890 _00139_DS_:
                      00891         .line   142; main.c     byte = usart_getc();
00010C EC?? F0??      00892         CALL    _usart_getc
Message[1301]: Using default destination of 0 (Access Bank).
000110 6E??           00893         MOVWF   r0x00
                      00894         .line   143; main.c     byte2 = usart_getc();
000112 EC?? F0??      00895         CALL    _usart_getc
Message[1301]: Using default destination of 0 (Access Bank).
000116 6E??           00896         MOVWF   r0x01
                      00897         .line   144; main.c     if ( byte != byte2 )
000118 50??           00898         MOVF    r0x00, W
00011A 18??           00899         XORWF   r0x01, W
00011C E1??           00900         BNZ     _00147_DS_
                      00901         .line   146; main.c     timer_speed_L = byte;
00011E C??? F???      00902         MOVFF   r0x00, _timer_speed_L
000122                00903 _00146_DS_:
                      00904         .line   153; main.c     usart_putc(PR_OK);
000122 0E06           00905         MOVLW   0x06
000124 EC?? F0??      00906         CALL    _usart_putc
                      00907         .line   154; main.c     usart_putc(PR_OK);
000128 0E06           00908         MOVLW   0x06
00012A EC?? F0??      00909         CALL    _usart_putc
                      00910         .line   155; main.c     return;
00012E D???           00911         BRA     _00150_DS_
000130                00912 _00147_DS_:
                      00913         .line   157; main.c     usart_putc(PR_ERR);
000130 0E07           00914         MOVLW   0x07
000132 EC?? F0??      00915         CALL    _usart_putc
                      00916         .line   158; main.c     usart_putc(PR_ERR);
000136 0E07           00917         MOVLW   0x07
000138 EC?? F0??      00918         CALL    _usart_putc
00013C                00919 _00150_DS_:
00013C CFE4 F000      00920         MOVFF   PREINC1, r0x06
000140 CFE4 F000      00921         MOVFF   PREINC1, r0x05
000144 CFE4 F000      00922         MOVFF   PREINC1, r0x04
000148 CFE4 F000      00923         MOVFF   PREINC1, r0x03
00014C CFE4 F000      00924         MOVFF   PREINC1, r0x02
000150 CFE4 F000      00925         MOVFF   PREINC1, r0x01
000154 CFE4 F000      00926         MOVFF   PREINC1, r0x00
000158 CFE4 FFD9      00927         MOVFF   PREINC1, FSR2L
00015C 0012           00928         RETURN  
                      00929 
                      00930 ; ; Starting pCode block
                      00931 S_main__serial_init     code
000000                00932 _serial_init:
                      00933         .line   87; main.c      void serial_init()
000000 CFD9 FFE5      00934         MOVFF   FSR2L, POSTDEC1
gpasm-1.4.0 #1107 (Feb 13 2015)      main.asm   4-21-2015  23:49:51         PAGE 20


LOC    OBJECT CODE    LINE  SOURCE TEXT
  VALUE

000004 CFE1 FFD9      00935         MOVFF   FSR1L, FSR2L
000008 C??? F???      00936         MOVFF   r0x00, POSTDEC1
                      00937         .line   97; main.c      8332
00000C 0E20           00938         MOVLW   0x20
Message[1301]: Using default destination of 0 (Access Bank).
00000E 6EE5           00939         MOVWF   POSTDEC1
000010 0E8C           00940         MOVLW   0x8c
Message[1301]: Using default destination of 0 (Access Bank).
000012 6EE5           00941         MOVWF   POSTDEC1
000014 0E2C           00942         MOVLW   0x2c
000016 EC?? F0??      00943         CALL    _usart_open
00001A 52E6           00944         MOVF    POSTINC1, F
00001C 52E6           00945         MOVF    POSTINC1, F
                      00946         .line   99; main.c      for(i=0xff;i;i--)
00001E 0EFF           00947         MOVLW   0xff
Message[1301]: Using default destination of 0 (Access Bank).
000020 6E??           00948         MOVWF   r0x00
000022                00949 _00120_DS_:
000022 0000           00950         NOP 
                      00951         .line   99; main.c      for(i=0xff;i;i--)
000024 2E??           00952         DECFSZ  r0x00, F
000026 D???           00953         BRA     _00120_DS_
000028 CFE4 F000      00954         MOVFF   PREINC1, r0x00
00002C CFE4 FFD9      00955         MOVFF   PREINC1, FSR2L
000030 0012           00956         RETURN  
                      00957 
                      00958 ; ; Starting pCode block
                      00959 S_main__ports_init      code
000000                00960 _ports_init:
                      00961         .line   61; main.c      __once void ports_init()
000000 CFD9 FFE5      00962         MOVFF   FSR2L, POSTDEC1
000004 CFE1 FFD9      00963         MOVFF   FSR1L, FSR2L
000008 C??? F???      00964         MOVFF   r0x00, POSTDEC1
00000C C??? F???      00965         MOVFF   r0x01, POSTDEC1
000010 C??? F???      00966         MOVFF   r0x02, POSTDEC1
                      00967         .line   65; main.c      ADCON0=0x00; // turn off analog to digital conversion module
Message[1301]: Using default destination of 0 (Access Bank).
000014 6A??           00968         CLRF    _ADCON0
                      00969         .line   66; main.c      ADCON1=0x0f; // set all analog to digital conversion module inputs as di
                            gital inputs/outputs
000016 0E0F           00970         MOVLW   0x0f
Message[1301]: Using default destination of 0 (Access Bank).
000018 6E??           00971         MOVWF   _ADCON1
                      00972         .line   67; main.c      CMCON=0x07; // turn off comparator module
00001A 0E07           00973         MOVLW   0x07
Message[1301]: Using default destination of 0 (Access Bank).
00001C 6E??           00974         MOVWF   _CMCON
                      00975         .line   70; main.c      PORTA=0x00;
Message[1301]: Using default destination of 0 (Access Bank).
00001E 6A??           00976         CLRF    _PORTA
                      00977         .line   71; main.c      LATA=0x00;
Message[1301]: Using default destination of 0 (Access Bank).
000020 6A??           00978         CLRF    _LATA
gpasm-1.4.0 #1107 (Feb 13 2015)      main.asm   4-21-2015  23:49:51         PAGE 21


LOC    OBJECT CODE    LINE  SOURCE TEXT
  VALUE

                      00979         .line   72; main.c      TRISA=0x00;
Message[1301]: Using default destination of 0 (Access Bank).
000022 6A??           00980         CLRF    _TRISA
                      00981         .line   75; main.c      PORTB=0x00;
Message[1301]: Using default destination of 0 (Access Bank).
000024 6A??           00982         CLRF    _PORTB
                      00983         .line   76; main.c      LATB=0x00;
Message[1301]: Using default destination of 0 (Access Bank).
000026 6A??           00984         CLRF    _LATB
                      00985         .line   77; main.c      TRISB=0x00;
Message[1301]: Using default destination of 0 (Access Bank).
000028 6A??           00986         CLRF    _TRISB
                      00987         .line   80; main.c      PORTC=0x00;
Message[1301]: Using default destination of 0 (Access Bank).
00002A 6A??           00988         CLRF    _PORTC
                      00989         .line   81; main.c      LATC=0x00;
Message[1301]: Using default destination of 0 (Access Bank).
00002C 6A??           00990         CLRF    _LATC
                      00991         .line   82; main.c      TRISC=0x00;
Message[1301]: Using default destination of 0 (Access Bank).
00002E 6A??           00992         CLRF    _TRISC
                      00993         .line   84; main.c      for(i=0; i<ROWS;i++)
Message[1301]: Using default destination of 0 (Access Bank).
000030 6A??           00994         CLRF    r0x00
000032                00995 _00106_DS_:
                      00996         .line   85; main.c      state[i] = 0;
000032 0E??           00997         MOVLW   LOW(_state)
000034 24??           00998         ADDWF   r0x00, W
Message[1301]: Using default destination of 0 (Access Bank).
000036 6E??           00999         MOVWF   r0x01
Message[1301]: Using default destination of 0 (Access Bank).
000038 6A??           01000         CLRF    r0x02
00003A 0E??           01001         MOVLW   HIGH(_state)
00003C 22??           01002         ADDWFC  r0x02, F
00003E C??? F???      01003         MOVFF   r0x01, FSR0L
000042 C??? F???      01004         MOVFF   r0x02, FSR0H
000046 0E00           01005         MOVLW   0x00
Message[1301]: Using default destination of 0 (Access Bank).
000048 6EEF           01006         MOVWF   INDF0
                      01007         .line   84; main.c      for(i=0; i<ROWS;i++)
00004A 2A??           01008         INCF    r0x00, F
00004C 0E03           01009         MOVLW   0x03
00004E 5C??           01010         SUBWF   r0x00, W
000050 E3??           01011         BNC     _00106_DS_
000052 CFE4 F000      01012         MOVFF   PREINC1, r0x02
000056 CFE4 F000      01013         MOVFF   PREINC1, r0x01
00005A CFE4 F000      01014         MOVFF   PREINC1, r0x00
00005E CFE4 FFD9      01015         MOVFF   PREINC1, FSR2L
000062 0012           01016         RETURN  
                      01017 
                      01018 
                      01019 
                      01020 ; Statistics:
gpasm-1.4.0 #1107 (Feb 13 2015)      main.asm   4-21-2015  23:49:51         PAGE 22


LOC    OBJECT CODE    LINE  SOURCE TEXT
  VALUE

                      01021 ; code size:     1310 (0x051e) bytes ( 1.00%)
                      01022 ;                 655 (0x028f) words
                      01023 ; udata size:       3 (0x0003) bytes ( 0.17%)
                      01024 ; access size:     10 (0x000a) bytes
                      01025 
                      01026 
                      01027         end
gpasm-1.4.0 #1107 (Feb 13 2015)      main.asm   4-21-2015  23:49:51         PAGE 23


SYMBOL TABLE
  LABEL                             VALUE

BSR                               00000FE0
FSR0H                             00000FEA
FSR0L                             00000FE9
FSR1L                             00000FE1
FSR2L                             00000FD9
INDF0                             00000FEF
PCLATH                            00000FFA
PCLATU                            00000FFB
PLUSW2                            00000FDB
POSTDEC1                          00000FE5
POSTINC1                          00000FE6
PREINC1                           00000FE4
PRODH                             00000FF4
PRODL                             00000FF3
STATUS                            00000FD8
WREG                              00000FE8
_00106_DS_                        00000032
_00120_DS_                        00000022
_00130_DS_                        00000082
_00136_DS_                        000000F4
_00139_DS_                        0000010C
_00145_DS_                        00000054
_00146_DS_                        00000122
_00147_DS_                        00000130
_00148_DS_                        00000032
_00150_DS_                        0000013C
_00190_DS_                        00000062
_00192_DS_                        0000006A
_00196_DS_                        00000078
_00198_DS_                        00000080
_00200_DS_                        00000096
_00201_DS_                        000000E2
_00202_DS_                        000000DC
_00213_DS_                        00000052
_00216_DS_                        00000046
_00219_DS_                        0000003A
_00222_DS_                        0000002E
_00223_DS_                        00000054
_00226_DS_                        0000007E
_00256_DS_                        00000034
_00264_DS_                        0000002A
_00274_DS_                        00000080
_00277_DS_                        000000D2
_00280_DS_                        00000048
_00281_DS_                        000000D6
_00297_DS_                        000000BA
_00298_DS_                        000000AA
_00299_DS_                        000000B4
_00300_DS_                        000000B2
_00306_DS_                        00000016
_00328_DS_                        0000001E
_00331_DS_                        00000088
_ADCON0                           00000000
gpasm-1.4.0 #1107 (Feb 13 2015)      main.asm   4-21-2015  23:49:51         PAGE 24


SYMBOL TABLE
  LABEL                             VALUE 

_ADCON0bits                       00000000
_ADCON1                           00000000
_ADCON1bits                       00000000
_ADCON2                           00000000
_ADCON2bits                       00000000
_ADRES                            00000000
_ADRESH                           00000000
_ADRESL                           00000000
_BAUDCON                          00000000
_BAUDCONbits                      00000000
_BAUDCTL                          00000000
_BAUDCTLbits                      00000000
_BSR                              00000000
_CCP1AS                           00000000
_CCP1ASbits                       00000000
_CCP1CON                          00000000
_CCP1CONbits                      00000000
_CCP1DEL                          00000000
_CCP1DELbits                      00000000
_CCP2CON                          00000000
_CCP2CONbits                      00000000
_CCPR1                            00000000
_CCPR1H                           00000000
_CCPR1L                           00000000
_CCPR2                            00000000
_CCPR2H                           00000000
_CCPR2L                           00000000
_CMCON                            00000000
_CMCONbits                        00000000
_CVRCON                           00000000
_CVRCONbits                       00000000
_DDRA                             00000000
_DDRAbits                         00000000
_DDRB                             00000000
_DDRBbits                         00000000
_DDRC                             00000000
_DDRCbits                         00000000
_ECCP1AS                          00000000
_ECCP1ASbits                      00000000
_ECCP1DEL                         00000000
_ECCP1DELbits                     00000000
_EEADR                            00000000
_EECON1                           00000000
_EECON1bits                       00000000
_EECON2                           00000000
_EEDATA                           00000000
_FSR0H                            00000000
_FSR0L                            00000000
_FSR1H                            00000000
_FSR1L                            00000000
_FSR2H                            00000000
_FSR2L                            00000000
_HLVDCON                          00000000
gpasm-1.4.0 #1107 (Feb 13 2015)      main.asm   4-21-2015  23:49:51         PAGE 25


SYMBOL TABLE
  LABEL                             VALUE 

_HLVDCONbits                      00000000
_INDF0                            00000000
_INDF1                            00000000
_INDF2                            00000000
_INTCON                           00000000
_INTCON2                          00000000
_INTCON2bits                      00000000
_INTCON3                          00000000
_INTCON3bits                      00000000
_INTCONbits                       00000000
_IPR1                             00000000
_IPR1bits                         00000000
_IPR2                             00000000
_IPR2bits                         00000000
_LATA                             00000000
_LATAbits                         00000000
_LATB                             00000000
_LATBbits                         00000000
_LATC                             00000000
_LATCbits                         00000000
_LVDCON                           00000000
_LVDCONbits                       00000000
_OSCCON                           00000000
_OSCCONbits                       00000000
_OSCTUNE                          00000000
_OSCTUNEbits                      00000000
_PC                               00000000
_PCL                              00000000
_PCLATH                           00000000
_PCLATU                           00000000
_PIE1                             00000000
_PIE1bits                         00000000
_PIE2                             00000000
_PIE2bits                         00000000
_PIR1                             00000000
_PIR1bits                         00000000
_PIR2                             00000000
_PIR2bits                         00000000
_PLUSW0                           00000000
_PLUSW1                           00000000
_PLUSW2                           00000000
_PORTA                            00000000
_PORTAbits                        00000000
_PORTB                            00000000
_PORTBbits                        00000000
_PORTC                            00000000
_PORTCbits                        00000000
_PORTE                            00000000
_PORTEbits                        00000000
_POSTDEC0                         00000000
_POSTDEC1                         00000000
_POSTDEC2                         00000000
_POSTINC0                         00000000
gpasm-1.4.0 #1107 (Feb 13 2015)      main.asm   4-21-2015  23:49:51         PAGE 26


SYMBOL TABLE
  LABEL                             VALUE 

_POSTINC1                         00000000
_POSTINC2                         00000000
_PR2                              00000000
_PREINC0                          00000000
_PREINC1                          00000000
_PREINC2                          00000000
_PROD                             00000000
_PRODH                            00000000
_PRODL                            00000000
_RCON                             00000000
_RCONbits                         00000000
_RCREG                            00000000
_RCSTA                            00000000
_RCSTAbits                        00000000
_SPBRG                            00000000
_SPBRGH                           00000000
_SSPADD                           00000000
_SSPBUF                           00000000
_SSPCON1                          00000000
_SSPCON1bits                      00000000
_SSPCON2                          00000000
_SSPCON2bits                      00000000
_SSPSTAT                          00000000
_SSPSTATbits                      00000000
_STATUS                           00000000
_STATUSbits                       00000000
_STKPTR                           00000000
_STKPTRbits                       00000000
_T0CON                            00000000
_T0CONbits                        00000000
_T1CON                            00000000
_T1CONbits                        00000000
_T2CON                            00000000
_T2CONbits                        00000000
_T3CON                            00000000
_T3CONbits                        00000000
_TABLAT                           00000000
_TBLPTR                           00000000
_TBLPTRH                          00000000
_TBLPTRL                          00000000
_TBLPTRU                          00000000
_TMR0                             00000000
_TMR0H                            00000000
_TMR0L                            00000000
_TMR1                             00000000
_TMR1H                            00000000
_TMR1L                            00000000
_TMR2                             00000000
_TMR3                             00000000
_TMR3H                            00000000
_TMR3L                            00000000
_TOS                              00000000
_TOSH                             00000000
gpasm-1.4.0 #1107 (Feb 13 2015)      main.asm   4-21-2015  23:49:51         PAGE 27


SYMBOL TABLE
  LABEL                             VALUE 

_TOSL                             00000000
_TOSU                             00000000
_TRISA                            00000000
_TRISAbits                        00000000
_TRISB                            00000000
_TRISBbits                        00000000
_TRISC                            00000000
_TRISCbits                        00000000
_TXREG                            00000000
_TXSTA                            00000000
_TXSTAbits                        00000000
_UADDR                            00000000
_UADDRbits                        00000000
_UCFG                             00000000
_UCFGbits                         00000000
_UCON                             00000000
_UCONbits                         00000000
_UEIE                             00000000
_UEIEbits                         00000000
_UEIR                             00000000
_UEIRbits                         00000000
_UEP0                             00000000
_UEP0bits                         00000000
_UEP1                             00000000
_UEP10                            00000000
_UEP10bits                        00000000
_UEP11                            00000000
_UEP11bits                        00000000
_UEP12                            00000000
_UEP12bits                        00000000
_UEP13                            00000000
_UEP13bits                        00000000
_UEP14                            00000000
_UEP14bits                        00000000
_UEP15                            00000000
_UEP15bits                        00000000
_UEP1bits                         00000000
_UEP2                             00000000
_UEP2bits                         00000000
_UEP3                             00000000
_UEP3bits                         00000000
_UEP4                             00000000
_UEP4bits                         00000000
_UEP5                             00000000
_UEP5bits                         00000000
_UEP6                             00000000
_UEP6bits                         00000000
_UEP7                             00000000
_UEP7bits                         00000000
_UEP8                             00000000
_UEP8bits                         00000000
_UEP9                             00000000
_UEP9bits                         00000000
gpasm-1.4.0 #1107 (Feb 13 2015)      main.asm   4-21-2015  23:49:51         PAGE 28


SYMBOL TABLE
  LABEL                             VALUE 

_UFRM                             00000000
_UFRMH                            00000000
_UFRMHbits                        00000000
_UFRML                            00000000
_UFRMLbits                        00000000
_UIE                              00000000
_UIEbits                          00000000
_UIR                              00000000
_UIRbits                          00000000
_USB_service                      00000000
_USTAT                            00000000
_USTATbits                        00000000
_WDTCON                           00000000
_WDTCONbits                       00000000
_WREG                             00000000
__18F2550                         00000001
__ACC_RAM_LOW_END                 0000005F
__CODE_END                        00007FFF
__CODE_START                      00000000
__EEPROM_END                      00F000FF
__EEPROM_START                    00F00000
__VECTOR_INT_HIGH                 00000008
__VECTOR_INT_LOW                  00000018
__VECTOR_RESET                    00000000
__divuchar                        00000000
__gptrget1                        00000000
__moduchar                        00000000
_clear                            00000000
_delay10ktcy                      00000000
_high_interrupt                   00000000
_low_interrupt                    00000000
_main                             00000000
_ports_init                       00000000
_process                          00000000
_serial_init                      00000000
_state                            00000000
_timer_interrupt                  00000000
_timer_interrupt_pos_1_33         00000002
_timer_speed_H                    00000000
_timer_speed_L                    00000001
_uart_process                     00000000
_usart_getc                       00000000
_usart_open                       00000000
_usart_putc                       00000000
ivec_0x1_high_interrupt           00000008
ivec_0x2_low_interrupt            00000018
r0x00                             00000000
r0x01                             00000001
r0x02                             00000002
r0x03                             00000003
r0x04                             00000004
r0x05                             00000005
r0x06                             00000006
gpasm-1.4.0 #1107 (Feb 13 2015)      main.asm   4-21-2015  23:49:51         PAGE 29


SYMBOL TABLE
  LABEL                             VALUE 

r0x07                             00000007
r0x08                             00000008
r0x09                             00000009

Errors   :     3
Warnings :     0 reported,     0 suppressed
Messages :    84 reported,     0 suppressed

