gpasm-1.4.0 #1107 (Feb 13 2015) ../include/us   4-21-2015  23:49:51         PAGE  1


LOC    OBJECT CODE    LINE  SOURCE TEXT
  VALUE

                      00001 ;--------------------------------------------------------
                      00002 ; File Created by SDCC : free open source ANSI-C Compiler
                      00003 ; Version 3.4.0 #8981 (May 19 2014) (Linux)
                      00004 ; This file was generated Tue Apr 21 23:49:50 2015
                      00005 ;--------------------------------------------------------
                      00006 ; PIC16 port for the Microchip 16-bit core micros
                      00007 ;--------------------------------------------------------
                      00008 
                      00009         .ident "SDCC version 3.4.0 #8981 [pic16 port]"
                      00010         .file   "../include/usb/usb.c"
                      00011         list    p=18f2550
                      00012         radix   dec
                      00013 
                      00014 
                      00015 ;--------------------------------------------------------
                      00016 ; public variables in this module
                      00017 ;--------------------------------------------------------
  0000                00018         global  _usb_bd
  0000                00019         global  _usb_ustat
  0000                00020         global  _USB_init
  0000                00021         global  _USB_wait_for_powerered_state
  0000                00022         global  _USB_service
  0000                00023         global  _USB_wait_for_configured_state
  0000                00024         global  _device_descriptor
  0000                00025         global  _configuration0_descriptor
  0000                00026         global  _string0_descriptor
  0000                00027         global  _string1_descriptor
  0000                00028         global  _string2_descriptor
  0000                00029         global  _string3_descriptor
                      00030 
                      00031 ;--------------------------------------------------------
                      00032 ; extern variables in this module
                      00033 ;--------------------------------------------------------
  0000                00034         extern  __gptrget1
  0000                00035         extern  __gptrput1
  0000                00036         extern  _UFRMLbits
  0000                00037         extern  _UFRMHbits
  0000                00038         extern  _UIRbits
  0000                00039         extern  _UIEbits
  0000                00040         extern  _UEIRbits
  0000                00041         extern  _UEIEbits
  0000                00042         extern  _USTATbits
  0000                00043         extern  _UCONbits
  0000                00044         extern  _UADDRbits
  0000                00045         extern  _UCFGbits
  0000                00046         extern  _UEP0bits
  0000                00047         extern  _UEP1bits
  0000                00048         extern  _UEP2bits
  0000                00049         extern  _UEP3bits
  0000                00050         extern  _UEP4bits
  0000                00051         extern  _UEP5bits
  0000                00052         extern  _UEP6bits
  0000                00053         extern  _UEP7bits
gpasm-1.4.0 #1107 (Feb 13 2015) ../include/us   4-21-2015  23:49:51         PAGE  2


LOC    OBJECT CODE    LINE  SOURCE TEXT
  VALUE

  0000                00054         extern  _UEP8bits
  0000                00055         extern  _UEP9bits
  0000                00056         extern  _UEP10bits
  0000                00057         extern  _UEP11bits
  0000                00058         extern  _UEP12bits
  0000                00059         extern  _UEP13bits
  0000                00060         extern  _UEP14bits
  0000                00061         extern  _UEP15bits
  0000                00062         extern  _PORTAbits
  0000                00063         extern  _PORTBbits
  0000                00064         extern  _PORTCbits
  0000                00065         extern  _PORTEbits
  0000                00066         extern  _LATAbits
  0000                00067         extern  _LATBbits
  0000                00068         extern  _LATCbits
  0000                00069         extern  _DDRAbits
  0000                00070         extern  _TRISAbits
  0000                00071         extern  _DDRBbits
  0000                00072         extern  _TRISBbits
  0000                00073         extern  _DDRCbits
  0000                00074         extern  _TRISCbits
  0000                00075         extern  _OSCTUNEbits
  0000                00076         extern  _PIE1bits
  0000                00077         extern  _PIR1bits
  0000                00078         extern  _IPR1bits
  0000                00079         extern  _PIE2bits
  0000                00080         extern  _PIR2bits
  0000                00081         extern  _IPR2bits
  0000                00082         extern  _EECON1bits
  0000                00083         extern  _RCSTAbits
  0000                00084         extern  _TXSTAbits
  0000                00085         extern  _T3CONbits
  0000                00086         extern  _CMCONbits
  0000                00087         extern  _CVRCONbits
  0000                00088         extern  _CCP1ASbits
  0000                00089         extern  _ECCP1ASbits
  0000                00090         extern  _CCP1DELbits
  0000                00091         extern  _ECCP1DELbits
  0000                00092         extern  _BAUDCONbits
  0000                00093         extern  _BAUDCTLbits
  0000                00094         extern  _CCP2CONbits
  0000                00095         extern  _CCP1CONbits
  0000                00096         extern  _ADCON2bits
  0000                00097         extern  _ADCON1bits
  0000                00098         extern  _ADCON0bits
  0000                00099         extern  _SSPCON2bits
  0000                00100         extern  _SSPCON1bits
  0000                00101         extern  _SSPSTATbits
  0000                00102         extern  _T2CONbits
  0000                00103         extern  _T1CONbits
  0000                00104         extern  _RCONbits
  0000                00105         extern  _WDTCONbits
  0000                00106         extern  _HLVDCONbits
gpasm-1.4.0 #1107 (Feb 13 2015) ../include/us   4-21-2015  23:49:51         PAGE  3


LOC    OBJECT CODE    LINE  SOURCE TEXT
  VALUE

  0000                00107         extern  _LVDCONbits
  0000                00108         extern  _OSCCONbits
  0000                00109         extern  _T0CONbits
  0000                00110         extern  _STATUSbits
  0000                00111         extern  _INTCON3bits
  0000                00112         extern  _INTCON2bits
  0000                00113         extern  _INTCONbits
  0000                00114         extern  _STKPTRbits
  0000                00115         extern  _UFRM
  0000                00116         extern  _UFRML
  0000                00117         extern  _UFRMH
  0000                00118         extern  _UIR
  0000                00119         extern  _UIE
  0000                00120         extern  _UEIR
  0000                00121         extern  _UEIE
  0000                00122         extern  _USTAT
  0000                00123         extern  _UCON
  0000                00124         extern  _UADDR
  0000                00125         extern  _UCFG
  0000                00126         extern  _UEP0
  0000                00127         extern  _UEP1
  0000                00128         extern  _UEP2
  0000                00129         extern  _UEP3
  0000                00130         extern  _UEP4
  0000                00131         extern  _UEP5
  0000                00132         extern  _UEP6
  0000                00133         extern  _UEP7
  0000                00134         extern  _UEP8
  0000                00135         extern  _UEP9
  0000                00136         extern  _UEP10
  0000                00137         extern  _UEP11
  0000                00138         extern  _UEP12
  0000                00139         extern  _UEP13
  0000                00140         extern  _UEP14
  0000                00141         extern  _UEP15
  0000                00142         extern  _PORTA
  0000                00143         extern  _PORTB
  0000                00144         extern  _PORTC
  0000                00145         extern  _PORTE
  0000                00146         extern  _LATA
  0000                00147         extern  _LATB
  0000                00148         extern  _LATC
  0000                00149         extern  _DDRA
  0000                00150         extern  _TRISA
  0000                00151         extern  _DDRB
  0000                00152         extern  _TRISB
  0000                00153         extern  _DDRC
  0000                00154         extern  _TRISC
  0000                00155         extern  _OSCTUNE
  0000                00156         extern  _PIE1
  0000                00157         extern  _PIR1
  0000                00158         extern  _IPR1
  0000                00159         extern  _PIE2
gpasm-1.4.0 #1107 (Feb 13 2015) ../include/us   4-21-2015  23:49:51         PAGE  4


LOC    OBJECT CODE    LINE  SOURCE TEXT
  VALUE

  0000                00160         extern  _PIR2
  0000                00161         extern  _IPR2
  0000                00162         extern  _EECON1
  0000                00163         extern  _EECON2
  0000                00164         extern  _EEDATA
  0000                00165         extern  _EEADR
  0000                00166         extern  _RCSTA
  0000                00167         extern  _TXSTA
  0000                00168         extern  _TXREG
  0000                00169         extern  _RCREG
  0000                00170         extern  _SPBRG
  0000                00171         extern  _SPBRGH
  0000                00172         extern  _T3CON
  0000                00173         extern  _TMR3
  0000                00174         extern  _TMR3L
  0000                00175         extern  _TMR3H
  0000                00176         extern  _CMCON
  0000                00177         extern  _CVRCON
  0000                00178         extern  _CCP1AS
  0000                00179         extern  _ECCP1AS
  0000                00180         extern  _CCP1DEL
  0000                00181         extern  _ECCP1DEL
  0000                00182         extern  _BAUDCON
  0000                00183         extern  _BAUDCTL
  0000                00184         extern  _CCP2CON
  0000                00185         extern  _CCPR2
  0000                00186         extern  _CCPR2L
  0000                00187         extern  _CCPR2H
  0000                00188         extern  _CCP1CON
  0000                00189         extern  _CCPR1
  0000                00190         extern  _CCPR1L
  0000                00191         extern  _CCPR1H
  0000                00192         extern  _ADCON2
  0000                00193         extern  _ADCON1
  0000                00194         extern  _ADCON0
  0000                00195         extern  _ADRES
  0000                00196         extern  _ADRESL
  0000                00197         extern  _ADRESH
  0000                00198         extern  _SSPCON2
  0000                00199         extern  _SSPCON1
  0000                00200         extern  _SSPSTAT
  0000                00201         extern  _SSPADD
  0000                00202         extern  _SSPBUF
  0000                00203         extern  _T2CON
  0000                00204         extern  _PR2
  0000                00205         extern  _TMR2
  0000                00206         extern  _T1CON
  0000                00207         extern  _TMR1
  0000                00208         extern  _TMR1L
  0000                00209         extern  _TMR1H
  0000                00210         extern  _RCON
  0000                00211         extern  _WDTCON
  0000                00212         extern  _HLVDCON
gpasm-1.4.0 #1107 (Feb 13 2015) ../include/us   4-21-2015  23:49:51         PAGE  5


LOC    OBJECT CODE    LINE  SOURCE TEXT
  VALUE

  0000                00213         extern  _LVDCON
  0000                00214         extern  _OSCCON
  0000                00215         extern  _T0CON
  0000                00216         extern  _TMR0
  0000                00217         extern  _TMR0L
  0000                00218         extern  _TMR0H
  0000                00219         extern  _STATUS
  0000                00220         extern  _FSR2L
  0000                00221         extern  _FSR2H
  0000                00222         extern  _PLUSW2
  0000                00223         extern  _PREINC2
  0000                00224         extern  _POSTDEC2
  0000                00225         extern  _POSTINC2
  0000                00226         extern  _INDF2
  0000                00227         extern  _BSR
  0000                00228         extern  _FSR1L
  0000                00229         extern  _FSR1H
  0000                00230         extern  _PLUSW1
  0000                00231         extern  _PREINC1
  0000                00232         extern  _POSTDEC1
  0000                00233         extern  _POSTINC1
  0000                00234         extern  _INDF1
  0000                00235         extern  _WREG
  0000                00236         extern  _FSR0L
  0000                00237         extern  _FSR0H
  0000                00238         extern  _PLUSW0
  0000                00239         extern  _PREINC0
  0000                00240         extern  _POSTDEC0
  0000                00241         extern  _POSTINC0
  0000                00242         extern  _INDF0
  0000                00243         extern  _INTCON3
  0000                00244         extern  _INTCON2
  0000                00245         extern  _INTCON
  0000                00246         extern  _PROD
  0000                00247         extern  _PRODL
  0000                00248         extern  _PRODH
  0000                00249         extern  _TABLAT
  0000                00250         extern  _TBLPTR
  0000                00251         extern  _TBLPTRL
  0000                00252         extern  _TBLPTRH
  0000                00253         extern  _TBLPTRU
  0000                00254         extern  _PC
  0000                00255         extern  _PCL
  0000                00256         extern  _PCLATH
  0000                00257         extern  _PCLATU
  0000                00258         extern  _STKPTR
  0000                00259         extern  _TOS
  0000                00260         extern  _TOSL
  0000                00261         extern  _TOSH
  0000                00262         extern  _TOSU
  0000                00263         extern  _USB_EP1_init
  0000                00264         extern  _USB_EP1_transmission
  0000                00265         extern  _USB_EP2_init
gpasm-1.4.0 #1107 (Feb 13 2015) ../include/us   4-21-2015  23:49:51         PAGE  6


LOC    OBJECT CODE    LINE  SOURCE TEXT
  VALUE

  0000                00266         extern  _USB_EP2_transmission
                      00267 
                      00268 ;--------------------------------------------------------
                      00269 ;       Equates to used internal registers
                      00270 ;--------------------------------------------------------
  00000FD8            00271 STATUS  equ     0xfd8
  00000FF9            00272 PCL     equ     0xff9
  00000FFA            00273 PCLATH  equ     0xffa
  00000FFB            00274 PCLATU  equ     0xffb
  00000FE8            00275 WREG    equ     0xfe8
  00000FE9            00276 FSR0L   equ     0xfe9
  00000FEA            00277 FSR0H   equ     0xfea
  00000FE1            00278 FSR1L   equ     0xfe1
  00000FD9            00279 FSR2L   equ     0xfd9
  00000FEF            00280 INDF0   equ     0xfef
  00000FEE            00281 POSTINC0        equ     0xfee
  00000FE6            00282 POSTINC1        equ     0xfe6
  00000FE5            00283 POSTDEC1        equ     0xfe5
  00000FE4            00284 PREINC1 equ     0xfe4
  00000FDB            00285 PLUSW2  equ     0xfdb
  00000FF3            00286 PRODL   equ     0xff3
  00000FF4            00287 PRODH   equ     0xff4
                      00288 
                      00289 
                      00290 ; Internal registers
                      00291 .registers      udata_ovr       0x0000
000000                00292 r0x00   res     1
000001                00293 r0x01   res     1
000002                00294 r0x02   res     1
000003                00295 r0x03   res     1
000004                00296 r0x04   res     1
000005                00297 r0x05   res     1
000006                00298 r0x06   res     1
000007                00299 r0x07   res     1
000008                00300 r0x08   res     1
000009                00301 r0x09   res     1
00000A                00302 r0x0a   res     1
                      00303 
                      00304 
                      00305 usb_bd  udata
000000                00306 _usb_bd res     128
                      00307 
                      00308 
                      00309 usb_buff        udata
000000                00310 _USB_EP0_out_buffer     res     64
000040                00311 _USB_EP0_in_buffer      res     64
                      00312 
                      00313 udata_usb_0     udata
000000                00314 _usbdev res     2
                      00315 
                      00316 udata_usb_1     udata
000000                00317 _USB_EP0_to_send        res     4
                      00318 
gpasm-1.4.0 #1107 (Feb 13 2015) ../include/us   4-21-2015  23:49:51         PAGE  7


LOC    OBJECT CODE    LINE  SOURCE TEXT
  VALUE

                      00319 udata_usb_2     udata
000000                00320 _usb_ustat      res     1
                      00321 
                      00322 ;--------------------------------------------------------
                      00323 ; global & static initialisations
                      00324 ;--------------------------------------------------------
                      00325 ; I code from now on!
                      00326 ; ; Starting pCode block
                      00327 S_usb__USB_wait_for_configured_state    code
000000                00328 _USB_wait_for_configured_state:
                      00329         .line   343; ../include/usb/usb.c       void USB_wait_for_configured_state(void) 
000000 CFD9 FFE5      00330         MOVFF   FSR2L, POSTDEC1
000004 CFE1 FFD9      00331         MOVFF   FSR1L, FSR2L
000008 C??? F???      00332         MOVFF   r0x00, POSTDEC1
                      00333         .line   345; ../include/usb/usb.c       USB_wait_for_powerered_state();
00000C EC?? F0??      00334         CALL    _USB_wait_for_powerered_state
000010                00335 _00703_DS_:
000010 ????           00336         BANKSEL _usbdev
                      00337         .line   346; ../include/usb/usb.c       while ( usbdev.state < CONFIGURED_STATE )
000012 51??           00338         MOVF    _usbdev, W, B
000014 40E8           00339         RRNCF   WREG, W
000016 40E8           00340         RRNCF   WREG, W
000018 0B07           00341         ANDLW   0x07
Message[1301]: Using default destination of 0 (Access Bank).
00001A 6E??           00342         MOVWF   r0x00
00001C 50??           00343         MOVF    r0x00, W
00001E 0F80           00344         ADDLW   0x80
000020 0F79           00345         ADDLW   0x79
000022 E2??           00346         BC      _00706_DS_
                      00347         .line   348; ../include/usb/usb.c       USB_service();
000024 EC?? F0??      00348         CALL    _USB_service
000028 D???           00349         BRA     _00703_DS_
00002A                00350 _00706_DS_:
00002A CFE4 F000      00351         MOVFF   PREINC1, r0x00
00002E CFE4 FFD9      00352         MOVFF   PREINC1, FSR2L
000032 0012           00353         RETURN  
                      00354 
                      00355 ; ; Starting pCode block
                      00356 S_usb__USB_service      code
000000                00357 _USB_service:
                      00358         .line   190; ../include/usb/usb.c       void USB_service(void)
000000 CFD9 FFE5      00359         MOVFF   FSR2L, POSTDEC1
000004 CFE1 FFD9      00360         MOVFF   FSR1L, FSR2L
000008 C??? F???      00361         MOVFF   r0x00, POSTDEC1
00000C C??? F???      00362         MOVFF   r0x01, POSTDEC1
000010 C??? F???      00363         MOVFF   r0x02, POSTDEC1
000014 C??? F???      00364         MOVFF   r0x03, POSTDEC1
000018 C??? F???      00365         MOVFF   r0x04, POSTDEC1
                      00366         .line   196; ../include/usb/usb.c       UIR &= UIE; /* mask UIE only bits in UIR register */
00001C 50??           00367         MOVF    _UIE, W
00001E 16??           00368         ANDWF   _UIR, F
                      00369         .line   201; ../include/usb/usb.c       if (UIRbits.ACTVIF) {/* Activity on bus detected */
000020 A4??           00370         BTFSS   _UIRbits, 2
gpasm-1.4.0 #1107 (Feb 13 2015) ../include/us   4-21-2015  23:49:51         PAGE  8


LOC    OBJECT CODE    LINE  SOURCE TEXT
  VALUE

000022 D???           00371         BRA     _00594_DS_
                      00372         .line   202; ../include/usb/usb.c       UIEbits.ACTVIE = 0;
000024 94??           00373         BCF     _UIEbits, 2
                      00374         .line   203; ../include/usb/usb.c       UCONbits.SUSPND = 0;
000026 92??           00375         BCF     _UCONbits, 1
000028                00376 _00561_DS_:
                      00377         .line   204; ../include/usb/usb.c       do { UIRbits.ACTVIF = 0; } while (UIRbits.ACTVIF); /* do
                            cumentation page 179 */
000028 94??           00378         BCF     _UIRbits, 2
00002A B4??           00379         BTFSC   _UIRbits, 2
00002C D???           00380         BRA     _00561_DS_
00002E D???           00381         BRA     _00615_DS_
000030                00382 _00594_DS_:
                      00383         .line   214; ../include/usb/usb.c       if (UIRbits.URSTIF) {
000030 A0??           00384         BTFSS   _UIRbits, 0
000032 D???           00385         BRA     _00591_DS_
                      00386         .line   155; ../include/usb/usb.c       USB_init();
000034 EC?? F0??      00387         CALL    _USB_init
                      00388         .line   159; ../include/usb/usb.c       UEIR = 0x00;                       // Clear all USB erro
                            r flags
Message[1301]: Using default destination of 0 (Access Bank).
000038 6A??           00389         CLRF    _UEIR
                      00390         .line   160; ../include/usb/usb.c       UIR  = 0x00;                        // Clears all USB in
                            terrupts
Message[1301]: Using default destination of 0 (Access Bank).
00003A 6A??           00391         CLRF    _UIR
                      00392         .line   161; ../include/usb/usb.c       UEIE = 0b10011111;              // Unmask all USB error 
                            interrupts
00003C 0E9F           00393         MOVLW   0x9f
Message[1301]: Using default destination of 0 (Access Bank).
00003E 6E??           00394         MOVWF   _UEIE
                      00395         .line   162; ../include/usb/usb.c       UIE  = 0b01111011;               // Enable all interrupt
                            s except ACTVIE
000040 0E7B           00396         MOVLW   0x7b
Message[1301]: Using default destination of 0 (Access Bank).
000042 6E??           00397         MOVWF   _UIE
000044 ????           00398         BANKSEL _usbdev
                      00399         .line   164; ../include/usb/usb.c       usbdev.state = DEFAULT_STATE;
000046 51??           00400         MOVF    _usbdev, W, B
000048 0BE3           00401         ANDLW   0xe3
00004A 090C           00402         IORLW   0x0c
00004C ????           00403         BANKSEL _usbdev
00004E 6F??           00404         MOVWF   _usbdev, B
000050 ????           00405         BANKSEL (_usbdev + 1)
                      00406         .line   165; ../include/usb/usb.c       usbdev.config = 0;
000052 6B??           00407         CLRF    (_usbdev + 1), B
000054 ????           00408         BANKSEL _usbdev
                      00409         .line   166; ../include/usb/usb.c       usbdev.status = 0;
000056 51??           00410         MOVF    _usbdev, W, B
000058 0BFC           00411         ANDLW   0xfc
00005A ????           00412         BANKSEL _usbdev
00005C 6F??           00413         MOVWF   _usbdev, B
                      00414         .line   168; ../include/usb/usb.c       USB_EP0_init(); /* reset EP0 */
gpasm-1.4.0 #1107 (Feb 13 2015) ../include/us   4-21-2015  23:49:51         PAGE  9


LOC    OBJECT CODE    LINE  SOURCE TEXT
  VALUE

00005E EC?? F0??      00415         CALL    _USB_EP0_init
                      00416         .line   215; ../include/usb/usb.c       USB_reset();
000062 D???           00417         BRA     _00615_DS_
000064                00418 _00591_DS_:
                      00419         .line   221; ../include/usb/usb.c       if (UIRbits.IDLEIF) { /* Idle condition detected */
000064 A8??           00420         BTFSS   _UIRbits, 4
000066 D???           00421         BRA     _00588_DS_
                      00422         .line   222; ../include/usb/usb.c       UIRbits.IDLEIF  = 0;
000068 98??           00423         BCF     _UIRbits, 4
                      00424         .line   223; ../include/usb/usb.c       UIEbits.ACTVIE = 1;
00006A 84??           00425         BSF     _UIEbits, 2
                      00426         .line   224; ../include/usb/usb.c       UCONbits.SUSPND = 1;
00006C 82??           00427         BSF     _UCONbits, 1
00006E D???           00428         BRA     _00615_DS_
000070                00429 _00588_DS_:
                      00430         .line   227; ../include/usb/usb.c       if (UIRbits.SOFIF) { /* START-OF-FRAME token was receive
                            d */
000070 AC??           00431         BTFSS   _UIRbits, 6
000072 D???           00432         BRA     _00585_DS_
                      00433         .line   228; ../include/usb/usb.c       UIRbits.SOFIF = 0;
000074 9C??           00434         BCF     _UIRbits, 6
000076 D???           00435         BRA     _00615_DS_
000078                00436 _00585_DS_:
                      00437         .line   230; ../include/usb/usb.c       if (UIRbits.STALLIF) {
000078 AA??           00438         BTFSS   _UIRbits, 5
00007A D???           00439         BRA     _00582_DS_
                      00440         .line   231; ../include/usb/usb.c       UIRbits.STALLIF = 0;
00007C 9A??           00441         BCF     _UIRbits, 5
00007E D???           00442         BRA     _00615_DS_
000080                00443 _00582_DS_:
                      00444         .line   233; ../include/usb/usb.c       if (UIRbits.UERRIF) {
000080 A2??           00445         BTFSS   _UIRbits, 1
000082 D???           00446         BRA     _00579_DS_
                      00447         .line   234; ../include/usb/usb.c       UIRbits.UERRIF = 0;
000084 92??           00448         BCF     _UIRbits, 1
                      00449         .line   235; ../include/usb/usb.c       UEIR = 0x00;
Message[1301]: Using default destination of 0 (Access Bank).
000086 6A??           00450         CLRF    _UEIR
000088 D???           00451         BRA     _00615_DS_
00008A                00452 _00579_DS_:
                      00453         .line   241; ../include/usb/usb.c       if (UIRbits.TRNIF) {
00008A A6??           00454         BTFSS   _UIRbits, 3
00008C D???           00455         BRA     _00615_DS_
                      00456         .line   249; ../include/usb/usb.c       do { /* }  while ( i is set &&  TRNIF is set && no other
                             usb signal was received */
00008E 0E04           00457         MOVLW   0x04
Message[1301]: Using default destination of 0 (Access Bank).
000090 6E??           00458         MOVWF   r0x00
000092                00459 _00573_DS_:
                      00460         .line   252; ../include/usb/usb.c       endp = USTATbits.ENDP;
000092 50??           00461         MOVF    _USTATbits, W
000094 38E8           00462         SWAPF   WREG, W
000096 44E8           00463         RLNCF   WREG, W
gpasm-1.4.0 #1107 (Feb 13 2015) ../include/us   4-21-2015  23:49:51         PAGE 10


LOC    OBJECT CODE    LINE  SOURCE TEXT
  VALUE

000098 0B0F           00464         ANDLW   0x0f
Message[1301]: Using default destination of 0 (Access Bank).
00009A 6E??           00465         MOVWF   r0x01
                      00466         .line   255; ../include/usb/usb.c       usb_ustat.USTAT = USTAT;
00009C 50??           00467         MOVF    _USTAT, W
00009E ????           00468         BANKSEL _usb_ustat
0000A0 6F??           00469         MOVWF   _usb_ustat, B
                      00470         .line   262; ../include/usb/usb.c       UIRbits.TRNIF = 0;
0000A2 96??           00471         BCF     _UIRbits, 3
                      00472         .line   273; ../include/usb/usb.c       switch (endp) {
0000A4 0E03           00473         MOVLW   0x03
0000A6 5C??           00474         SUBWF   r0x01, W
0000A8 B0D8           00475         BTFSC   STATUS, 0
0000AA D???           00476         BRA     _00570_DS_
Message[1301]: Using default destination of 0 (Access Bank).
0000AC 6AFA           00477         CLRF    PCLATH
Message[1301]: Using default destination of 0 (Access Bank).
0000AE 6AFB           00478         CLRF    PCLATU
0000B0 34??           00479         RLCF    r0x01, W
0000B2 36FA           00480         RLCF    PCLATH, F
0000B4 34E8           00481         RLCF    WREG, W
0000B6 36FA           00482         RLCF    PCLATH, F
0000B8 0BFC           00483         ANDLW   0xfc
0000BA 0F??           00484         ADDLW   LOW(_00683_DS_)
Message[1301]: Using default destination of 0 (Access Bank).
0000BC 6EE5           00485         MOVWF   POSTDEC1
0000BE 0E??           00486         MOVLW   HIGH(_00683_DS_)
0000C0 22FA           00487         ADDWFC  PCLATH, F
0000C2 0E??           00488         MOVLW   UPPER(_00683_DS_)
0000C4 22FB           00489         ADDWFC  PCLATU, F
0000C6 50E4           00490         MOVF    PREINC1, W
Message[1301]: Using default destination of 0 (Access Bank).
0000C8 6EF9           00491         MOVWF   PCL
0000CA                00492 _00683_DS_:
0000CA EF?? F0??      00493         GOTO    _00564_DS_
0000CE EF?? F0??      00494         GOTO    _00568_DS_
0000D2 EF?? F0??      00495         GOTO    _00569_DS_
0000D6                00496 _00564_DS_:
0000D6 ????           00497         BANKSEL _usb_ustat
                      00498         .line   276; ../include/usb/usb.c       if (usb_ustat.USTATbits.DIR)
0000D8 A5??           00499         BTFSS   _usb_ustat, 2, B
0000DA D???           00500         BRA     _00566_DS_
0000DC ????           00501         BANKSEL _usbdev
                      00502         .line   488; ../include/usb/usb_ep0.c   if ( usbdev.state == ADDRESS_PENDING_STATE ) {
0000DE 51??           00503         MOVF    _usbdev, W, B
0000E0 40E8           00504         RRNCF   WREG, W
0000E2 40E8           00505         RRNCF   WREG, W
0000E4 0B07           00506         ANDLW   0x07
Message[1301]: Using default destination of 0 (Access Bank).
0000E6 6E??           00507         MOVWF   r0x01
0000E8 50??           00508         MOVF    r0x01, W
0000EA 0A04           00509         XORLW   0x04
0000EC E1??           00510         BNZ     _00601_DS_
gpasm-1.4.0 #1107 (Feb 13 2015) ../include/us   4-21-2015  23:49:51         PAGE 11


LOC    OBJECT CODE    LINE  SOURCE TEXT
  VALUE

                      00511         .line   492; ../include/usb/usb_ep0.c   UADDR = USB_EP0_to_send.len;
0000EE C??? F???      00512         MOVFF   _USB_EP0_to_send, _UADDR
                      00513         .line   493; ../include/usb/usb_ep0.c   if ( UADDR ) {
0000F2 50??           00514         MOVF    _UADDR, W
0000F4 E0??           00515         BZ      _00598_DS_
0000F6 ????           00516         BANKSEL _usbdev
                      00517         .line   494; ../include/usb/usb_ep0.c   usbdev.state = ADDRESS_STATE;
0000F8 51??           00518         MOVF    _usbdev, W, B
0000FA 0BE3           00519         ANDLW   0xe3
0000FC 0914           00520         IORLW   0x14
0000FE ????           00521         BANKSEL _usbdev
000100 6F??           00522         MOVWF   _usbdev, B
000102 D???           00523         BRA     _00570_DS_
000104                00524 _00598_DS_:
000104 ????           00525         BANKSEL _usbdev
                      00526         .line   496; ../include/usb/usb_ep0.c   usbdev.state = DEFAULT_STATE;
000106 51??           00527         MOVF    _usbdev, W, B
000108 0BE3           00528         ANDLW   0xe3
00010A 090C           00529         IORLW   0x0c
00010C ????           00530         BANKSEL _usbdev
00010E 6F??           00531         MOVWF   _usbdev, B
                      00532         .line   499; ../include/usb/usb.c       ERROR: no line number 499 in file ../include/usb/usb.c
000110 D???           00533         BRA     _00570_DS_
000112                00534 _00601_DS_:
000112 ????           00535         BANKSEL _USB_EP0_to_send
                      00536         .line   502; ../include/usb/usb_ep0.c   if ( USB_EP0_to_send.len ) {
000114 51??           00537         MOVF    _USB_EP0_to_send, W, B
000116 E0??           00538         BZ      _00603_DS_
000118 ????           00539         BANKSEL (_usb_bd + 7)
                      00540         .line   505; ../include/usb/usb_ep0.c   bd_in->cnt = USB_EP0_fill_adr(bd_in->adr);
00011A 51??           00541         MOVF    (_usb_bd + 7), W, B
Message[1301]: Using default destination of 0 (Access Bank).
00011C 6EE5           00542         MOVWF   POSTDEC1
00011E ????           00543         BANKSEL (_usb_bd + 6)
000120 51??           00544         MOVF    (_usb_bd + 6), W, B
Message[1301]: Using default destination of 0 (Access Bank).
000122 6EE5           00545         MOVWF   POSTDEC1
000124 EC?? F0??      00546         CALL    _USB_EP0_fill_adr
Message[1301]: Using default destination of 0 (Access Bank).
000128 6E??           00547         MOVWF   r0x01
00012A 52E6           00548         MOVF    POSTINC1, F
00012C 52E6           00549         MOVF    POSTINC1, F
00012E 50??           00550         MOVF    r0x01, W
000130 ????           00551         BANKSEL (_usb_bd + 5)
000132 6F??           00552         MOVWF   (_usb_bd + 5), B
                      00553         .line   509; ../include/usb/usb_ep0.c   bd_in->stat = BD_STAT_USIE | ((bd_in->stat&BD_STAT_MASK_
                            DTS)^BD_STAT_MASK_DTS) | BD_STAT_DTSEN;
000134 0E40           00554         MOVLW   0x40
000136 ????           00555         BANKSEL (_usb_bd + 4)
000138 15??           00556         ANDWF   (_usb_bd + 4), W, B
Message[1301]: Using default destination of 0 (Access Bank).
00013A 6E??           00557         MOVWF   r0x01
00013C 7C??           00558         BTG     r0x01, 6
gpasm-1.4.0 #1107 (Feb 13 2015) ../include/us   4-21-2015  23:49:51         PAGE 12


LOC    OBJECT CODE    LINE  SOURCE TEXT
  VALUE

00013E 0E88           00559         MOVLW   0x88
000140 12??           00560         IORWF   r0x01, F
000142 50??           00561         MOVF    r0x01, W
000144 ????           00562         BANKSEL (_usb_bd + 4)
000146 6F??           00563         MOVWF   (_usb_bd + 4), B
000148 D???           00564         BRA     _00570_DS_
00014A                00565 _00603_DS_:
                      00566         .line   520; ../include/usb/usb_ep0.c   bd_in->stat = BD_STAT_USIE | BD_STAT_BSTALL;
00014A 0E84           00567         MOVLW   0x84
00014C ????           00568         BANKSEL (_usb_bd + 4)
00014E 6F??           00569         MOVWF   (_usb_bd + 4), B
                      00570         .line   278; ../include/usb/usb.c       USB_EP0_in_token(); 
000150 D???           00571         BRA     _00570_DS_
000152                00572 _00566_DS_:
000152 ????           00573         BANKSEL _usb_bd
                      00574         .line   530; ../include/usb/usb_ep0.c   if ( bd_out->statbits.PID == USB_PID_SETUP ) {
000154 51??           00575         MOVF    _usb_bd, W, B
000156 40E8           00576         RRNCF   WREG, W
000158 40E8           00577         RRNCF   WREG, W
00015A 0B0F           00578         ANDLW   0x0f
Message[1301]: Using default destination of 0 (Access Bank).
00015C 6E??           00579         MOVWF   r0x01
00015E 50??           00580         MOVF    r0x01, W
000160 0A0D           00581         XORLW   0x0d
000162 E1??           00582         BNZ     _00612_DS_
000164                00583 _00690_DS_:
000164 ????           00584         BANKSEL (_usb_bd + 2)
                      00585         .line   532; ../include/usb/usb_ep0.c   const struct usb_controlrequest __near * const USB_buffe
                            r = (struct usb_controlrequest __near *)bd_out->adr;
000166 51??           00586         MOVF    (_usb_bd + 2), W, B
Message[1301]: Using default destination of 0 (Access Bank).
000168 6E??           00587         MOVWF   r0x01
00016A ????           00588         BANKSEL (_usb_bd + 3)
00016C 51??           00589         MOVF    (_usb_bd + 3), W, B
Message[1301]: Using default destination of 0 (Access Bank).
00016E 6E??           00590         MOVWF   r0x02
                      00591         .line   537; ../include/usb/usb_ep0.c   switch ( ( USB_buffer->bmRequestType )&0x60 ) {
000170 C??? F???      00592         MOVFF   r0x01, FSR0L
000174 C??? F???      00593         MOVFF   r0x02, FSR0H
000178 CFEF F000      00594         MOVFF   INDF0, r0x03
00017C 0E60           00595         MOVLW   0x60
00017E 16??           00596         ANDWF   r0x03, F
000180 50??           00597         MOVF    r0x03, W
Message[1301]: Using default destination of 0 (Access Bank).
000182 6E??           00598         MOVWF   r0x04
000184 50??           00599         MOVF    r0x04, W
000186 E0??           00600         BZ      _00606_DS_
000188 50??           00601         MOVF    r0x03, W
00018A 0A20           00602         XORLW   0x20
00018C E0??           00603         BZ      _00607_DS_
00018E 50??           00604         MOVF    r0x03, W
000190 0A40           00605         XORLW   0x40
000192 E0??           00606         BZ      _00608_DS_
gpasm-1.4.0 #1107 (Feb 13 2015) ../include/us   4-21-2015  23:49:51         PAGE 13


LOC    OBJECT CODE    LINE  SOURCE TEXT
  VALUE

000194 D???           00607         BRA     _00609_DS_
000196                00608 _00606_DS_:
                      00609         .line   539; ../include/usb/usb_ep0.c   USB_standard_request(USB_buffer); /* USB_buffer is passe
                            d for reducing stack allocation */
000196 50??           00610         MOVF    r0x02, W
Message[1301]: Using default destination of 0 (Access Bank).
000198 6EE5           00611         MOVWF   POSTDEC1
00019A 50??           00612         MOVF    r0x01, W
Message[1301]: Using default destination of 0 (Access Bank).
00019C 6EE5           00613         MOVWF   POSTDEC1
00019E EC?? F0??      00614         CALL    _USB_standard_request
0001A2 52E6           00615         MOVF    POSTINC1, F
0001A4 52E6           00616         MOVF    POSTINC1, F
                      00617         .line   540; ../include/usb/usb_ep0.c   break;
0001A6 D???           00618         BRA     _00610_DS_
0001A8                00619 _00607_DS_:
                      00620         .line   542; ../include/usb/usb_ep0.c   USB_CLASS_REQUEST();
0001A8 EC?? F0??      00621         CALL    _USB_request_error
                      00622         .line   543; ../include/usb/usb_ep0.c   break;
0001AC D???           00623         BRA     _00610_DS_
0001AE                00624 _00608_DS_:
                      00625         .line   545; ../include/usb/usb_ep0.c   USB_VENDOR_REQUEST();
0001AE EC?? F0??      00626         CALL    _USB_request_error
                      00627         .line   546; ../include/usb/usb_ep0.c   break;
0001B2 D???           00628         BRA     _00610_DS_
0001B4                00629 _00609_DS_:
                      00630         .line   548; ../include/usb/usb_ep0.c   USB_request_error();
0001B4 EC?? F0??      00631         CALL    _USB_request_error
0001B8                00632 _00610_DS_:
                      00633         .line   555; ../include/usb/usb_ep0.c   UCONbits.PKTDIS = 0;
0001B8 98??           00634         BCF     _UCONbits, 4
0001BA D???           00635         BRA     _00570_DS_
0001BC                00636 _00612_DS_:
                      00637         .line   571; ../include/usb/usb_ep0.c   USB_EP0_init();
0001BC EC?? F0??      00638         CALL    _USB_EP0_init
                      00639         .line   282; ../include/usb/usb.c       break;
0001C0 D???           00640         BRA     _00570_DS_
0001C2                00641 _00568_DS_:
                      00642         .line   290; ../include/usb/usb.c       USB_CONFIG_NUM_ENDPOINTS_TRANSMISSION_ADD_CASE(1)
0001C2 EC?? F0??      00643         CALL    _USB_EP1_transmission
0001C6 D???           00644         BRA     _00570_DS_
0001C8                00645 _00569_DS_:
                      00646         .line   293; ../include/usb/usb.c       USB_CONFIG_NUM_ENDPOINTS_TRANSMISSION_ADD_CASE(2)
0001C8 EC?? F0??      00647         CALL    _USB_EP2_transmission
0001CC                00648 _00570_DS_:
                      00649         .line   338; ../include/usb/usb.c       --i;
0001CC 06??           00650         DECF    r0x00, F
                      00651         .line   339; ../include/usb/usb.c       } while (i && UIRbits.TRNIF && !(UIR&0xf7) );
0001CE 50??           00652         MOVF    r0x00, W
0001D0 E0??           00653         BZ      _00615_DS_
0001D2 A6??           00654         BTFSS   _UIRbits, 3
0001D4 D???           00655         BRA     _00615_DS_
0001D6 50??           00656         MOVF    _UIR, W
gpasm-1.4.0 #1107 (Feb 13 2015) ../include/us   4-21-2015  23:49:51         PAGE 14


LOC    OBJECT CODE    LINE  SOURCE TEXT
  VALUE

0001D8 0BF7           00657         ANDLW   0xf7
0001DA B4D8           00658         BTFSC   STATUS, 2
0001DC D???           00659         BRA     _00573_DS_
0001DE                00660 _00615_DS_:
0001DE CFE4 F000      00661         MOVFF   PREINC1, r0x04
0001E2 CFE4 F000      00662         MOVFF   PREINC1, r0x03
0001E6 CFE4 F000      00663         MOVFF   PREINC1, r0x02
0001EA CFE4 F000      00664         MOVFF   PREINC1, r0x01
0001EE CFE4 F000      00665         MOVFF   PREINC1, r0x00
0001F2 CFE4 FFD9      00666         MOVFF   PREINC1, FSR2L
0001F6 0012           00667         RETURN  
                      00668 
                      00669 ; ; Starting pCode block
                      00670 S_usb__USB_wait_for_powerered_state     code
000000                00671 _USB_wait_for_powerered_state:
                      00672         .line   171; ../include/usb/usb.c       void USB_wait_for_powerered_state(void)
000000 CFD9 FFE5      00673         MOVFF   FSR2L, POSTDEC1
000004 CFE1 FFD9      00674         MOVFF   FSR1L, FSR2L
000008 C??? F???      00675         MOVFF   r0x00, POSTDEC1
00000C ????           00676         BANKSEL _usbdev
                      00677         .line   173; ../include/usb/usb.c       if ( usbdev.state >= POWERED_STATE )
00000E 51??           00678         MOVF    _usbdev, W, B
000010 40E8           00679         RRNCF   WREG, W
000012 40E8           00680         RRNCF   WREG, W
000014 0B07           00681         ANDLW   0x07
Message[1301]: Using default destination of 0 (Access Bank).
000016 6E??           00682         MOVWF   r0x00
000018 50??           00683         MOVF    r0x00, W
00001A 0F80           00684         ADDLW   0x80
00001C 0F7E           00685         ADDLW   0x7e
                      00686         .line   175; ../include/usb/usb.c       return;
00001E E2??           00687         BC      _00545_DS_
000020                00688 _00542_DS_:
                      00689         .line   183; ../include/usb/usb.c       while (UCONbits.SE0);
000020 BA??           00690         BTFSC   _UCONbits, 5
000022 D???           00691         BRA     _00542_DS_
000024 ????           00692         BANKSEL _usbdev
                      00693         .line   184; ../include/usb/usb.c       usbdev.state = POWERED_STATE;
000026 51??           00694         MOVF    _usbdev, W, B
000028 0BE3           00695         ANDLW   0xe3
00002A 0908           00696         IORLW   0x08
00002C ????           00697         BANKSEL _usbdev
00002E 6F??           00698         MOVWF   _usbdev, B
                      00699         .line   185; ../include/usb/usb.c       UIE = 0x11; /* IDLEIE URSTIE */
000030 0E11           00700         MOVLW   0x11
Message[1301]: Using default destination of 0 (Access Bank).
000032 6E??           00701         MOVWF   _UIE
000034                00702 _00545_DS_:
000034 CFE4 F000      00703         MOVFF   PREINC1, r0x00
000038 CFE4 FFD9      00704         MOVFF   PREINC1, FSR2L
00003C 0012           00705         RETURN  
                      00706 
                      00707 ; ; Starting pCode block
gpasm-1.4.0 #1107 (Feb 13 2015) ../include/us   4-21-2015  23:49:51         PAGE 15


LOC    OBJECT CODE    LINE  SOURCE TEXT
  VALUE

                      00708 S_usb__USB_reset        code
000000                00709 _USB_reset:
                      00710         .line   153; ../include/usb/usb.c       __once void USB_reset(void)
000000 CFD9 FFE5      00711         MOVFF   FSR2L, POSTDEC1
000004 CFE1 FFD9      00712         MOVFF   FSR1L, FSR2L
                      00713         .line   155; ../include/usb/usb.c       USB_init();
000008 EC?? F0??      00714         CALL    _USB_init
                      00715         .line   159; ../include/usb/usb.c       UEIR = 0x00;                       // Clear all USB erro
                            r flags
Message[1301]: Using default destination of 0 (Access Bank).
00000C 6A??           00716         CLRF    _UEIR
                      00717         .line   160; ../include/usb/usb.c       UIR  = 0x00;                        // Clears all USB in
                            terrupts
Message[1301]: Using default destination of 0 (Access Bank).
00000E 6A??           00718         CLRF    _UIR
                      00719         .line   161; ../include/usb/usb.c       UEIE = 0b10011111;              // Unmask all USB error 
                            interrupts
000010 0E9F           00720         MOVLW   0x9f
Message[1301]: Using default destination of 0 (Access Bank).
000012 6E??           00721         MOVWF   _UEIE
                      00722         .line   162; ../include/usb/usb.c       UIE  = 0b01111011;               // Enable all interrupt
                            s except ACTVIE
000014 0E7B           00723         MOVLW   0x7b
Message[1301]: Using default destination of 0 (Access Bank).
000016 6E??           00724         MOVWF   _UIE
000018 ????           00725         BANKSEL _usbdev
                      00726         .line   164; ../include/usb/usb.c       usbdev.state = DEFAULT_STATE;
00001A 51??           00727         MOVF    _usbdev, W, B
00001C 0BE3           00728         ANDLW   0xe3
00001E 090C           00729         IORLW   0x0c
000020 ????           00730         BANKSEL _usbdev
000022 6F??           00731         MOVWF   _usbdev, B
000024 ????           00732         BANKSEL (_usbdev + 1)
                      00733         .line   165; ../include/usb/usb.c       usbdev.config = 0;
000026 6B??           00734         CLRF    (_usbdev + 1), B
000028 ????           00735         BANKSEL _usbdev
                      00736         .line   166; ../include/usb/usb.c       usbdev.status = 0;
00002A 51??           00737         MOVF    _usbdev, W, B
00002C 0BFC           00738         ANDLW   0xfc
00002E ????           00739         BANKSEL _usbdev
000030 6F??           00740         MOVWF   _usbdev, B
                      00741         .line   168; ../include/usb/usb.c       USB_EP0_init(); /* reset EP0 */
000032 EC?? F0??      00742         CALL    _USB_EP0_init
000036 CFE4 FFD9      00743         MOVFF   PREINC1, FSR2L
00003A 0012           00744         RETURN  
                      00745 
                      00746 ; ; Starting pCode block
                      00747 S_usb__USB_init code
000000                00748 _USB_init:
                      00749         .line   67; ../include/usb/usb.c        void USB_init(void)
000000 CFD9 FFE5      00750         MOVFF   FSR2L, POSTDEC1
000004 CFE1 FFD9      00751         MOVFF   FSR1L, FSR2L
                      00752         .line   73; ../include/usb/usb.c        UIE = 0x00; // mask all USB interrupts
gpasm-1.4.0 #1107 (Feb 13 2015) ../include/us   4-21-2015  23:49:51         PAGE 16


LOC    OBJECT CODE    LINE  SOURCE TEXT
  VALUE

Message[1301]: Using default destination of 0 (Access Bank).
000008 6A??           00753         CLRF    _UIE
                      00754         .line   74; ../include/usb/usb.c        UIR = 0x00; // clear all USB interrupt flags
Message[1301]: Using default destination of 0 (Access Bank).
00000A 6A??           00755         CLRF    _UIR
                      00756         .line   76; ../include/usb/usb.c        UCFG = 0x14 | USB_BUFFER_DESCRIPTOR_MODE;
00000C 0E14           00757         MOVLW   0x14
Message[1301]: Using default destination of 0 (Access Bank).
00000E 6E??           00758         MOVWF   _UCFG
000010                00759 _00527_DS_:
                      00760         .line   101; ../include/usb/usb.c       while(UIRbits.TRNIF)       // Flush any pending transact
                            ions
000010 A6??           00761         BTFSS   _UIRbits, 3
000012 D???           00762         BRA     _00529_DS_
                      00763         .line   102; ../include/usb/usb.c       UIRbits.TRNIF = 0; // to clear out the USTAT FIFO
000014 96??           00764         BCF     _UIRbits, 3
000016 D???           00765         BRA     _00527_DS_
000018                00766 _00529_DS_:
                      00767         .line   120; ../include/usb/usb.c       UEP0 = 0; 
Message[1301]: Using default destination of 0 (Access Bank).
000018 6A??           00768         CLRF    _UEP0
                      00769         .line   121; ../include/usb/usb.c       USB_clear_all_EP_exept_EP0(); /* clear all enpoints */
00001A EC?? F0??      00770         CALL    _USB_clear_all_EP_exept_EP0
                      00771         .line   123; ../include/usb/usb.c       UADDR = 0x00; /* clear usb address */
Message[1301]: Using default destination of 0 (Access Bank).
00001E 6A??           00772         CLRF    _UADDR
                      00773         .line   128; ../include/usb/usb.c       UCON = 0x08;
000020 0E08           00774         MOVLW   0x08
Message[1301]: Using default destination of 0 (Access Bank).
000022 6E??           00775         MOVWF   _UCON
000024 ????           00776         BANKSEL _usbdev
                      00777         .line   135; ../include/usb/usb.c       usbdev.state = ATTACHED_STATE;
000026 51??           00778         MOVF    _usbdev, W, B
000028 0BE3           00779         ANDLW   0xe3
00002A 0904           00780         IORLW   0x04
00002C ????           00781         BANKSEL _usbdev
00002E 6F??           00782         MOVWF   _usbdev, B
000030 ????           00783         BANKSEL (_usbdev + 1)
                      00784         .line   136; ../include/usb/usb.c       usbdev.config = 0;
000032 6B??           00785         CLRF    (_usbdev + 1), B
000034 ????           00786         BANKSEL _usbdev
                      00787         .line   137; ../include/usb/usb.c       usbdev.status = 0;
000036 51??           00788         MOVF    _usbdev, W, B
000038 0BFC           00789         ANDLW   0xfc
00003A ????           00790         BANKSEL _usbdev
00003C 6F??           00791         MOVWF   _usbdev, B
00003E CFE4 FFD9      00792         MOVFF   PREINC1, FSR2L
000042 0012           00793         RETURN  
                      00794 
                      00795 ; ; Starting pCode block
                      00796 S_usb__USB_EP0_out_token        code
000000                00797 _USB_EP0_out_token:
                      00798         .line   525; ../include/usb/usb_ep0.c   __once void USB_EP0_out_token(void)
gpasm-1.4.0 #1107 (Feb 13 2015) ../include/us   4-21-2015  23:49:51         PAGE 17


LOC    OBJECT CODE    LINE  SOURCE TEXT
  VALUE

000000 CFD9 FFE5      00799         MOVFF   FSR2L, POSTDEC1
000004 CFE1 FFD9      00800         MOVFF   FSR1L, FSR2L
000008 C??? F???      00801         MOVFF   r0x00, POSTDEC1
00000C C??? F???      00802         MOVFF   r0x01, POSTDEC1
000010 C??? F???      00803         MOVFF   r0x02, POSTDEC1
000014 C??? F???      00804         MOVFF   r0x03, POSTDEC1
000018 ????           00805         BANKSEL _usb_bd
                      00806         .line   530; ../include/usb/usb_ep0.c   if ( bd_out->statbits.PID == USB_PID_SETUP ) {
00001A 51??           00807         MOVF    _usb_bd, W, B
00001C 40E8           00808         RRNCF   WREG, W
00001E 40E8           00809         RRNCF   WREG, W
000020 0B0F           00810         ANDLW   0x0f
Message[1301]: Using default destination of 0 (Access Bank).
000022 6E??           00811         MOVWF   r0x00
000024 50??           00812         MOVF    r0x00, W
000026 0A0D           00813         XORLW   0x0d
000028 E1??           00814         BNZ     _00498_DS_
00002A                00815 _00515_DS_:
00002A ????           00816         BANKSEL (_usb_bd + 2)
                      00817         .line   532; ../include/usb/usb_ep0.c   const struct usb_controlrequest __near * const USB_buffe
                            r = (struct usb_controlrequest __near *)bd_out->adr;
00002C 51??           00818         MOVF    (_usb_bd + 2), W, B
Message[1301]: Using default destination of 0 (Access Bank).
00002E 6E??           00819         MOVWF   r0x00
000030 ????           00820         BANKSEL (_usb_bd + 3)
000032 51??           00821         MOVF    (_usb_bd + 3), W, B
Message[1301]: Using default destination of 0 (Access Bank).
000034 6E??           00822         MOVWF   r0x01
                      00823         .line   537; ../include/usb/usb_ep0.c   switch ( ( USB_buffer->bmRequestType )&0x60 ) {
000036 C??? F???      00824         MOVFF   r0x00, FSR0L
00003A C??? F???      00825         MOVFF   r0x01, FSR0H
00003E CFEF F000      00826         MOVFF   INDF0, r0x02
000042 0E60           00827         MOVLW   0x60
000044 16??           00828         ANDWF   r0x02, F
000046 50??           00829         MOVF    r0x02, W
Message[1301]: Using default destination of 0 (Access Bank).
000048 6E??           00830         MOVWF   r0x03
00004A 50??           00831         MOVF    r0x03, W
00004C E0??           00832         BZ      _00492_DS_
00004E 50??           00833         MOVF    r0x02, W
000050 0A20           00834         XORLW   0x20
000052 E0??           00835         BZ      _00493_DS_
000054 50??           00836         MOVF    r0x02, W
000056 0A40           00837         XORLW   0x40
000058 E0??           00838         BZ      _00494_DS_
00005A D???           00839         BRA     _00495_DS_
00005C                00840 _00492_DS_:
                      00841         .line   539; ../include/usb/usb_ep0.c   USB_standard_request(USB_buffer); /* USB_buffer is passe
                            d for reducing stack allocation */
00005C 50??           00842         MOVF    r0x01, W
Message[1301]: Using default destination of 0 (Access Bank).
00005E 6EE5           00843         MOVWF   POSTDEC1
000060 50??           00844         MOVF    r0x00, W
gpasm-1.4.0 #1107 (Feb 13 2015) ../include/us   4-21-2015  23:49:51         PAGE 18


LOC    OBJECT CODE    LINE  SOURCE TEXT
  VALUE

Message[1301]: Using default destination of 0 (Access Bank).
000062 6EE5           00845         MOVWF   POSTDEC1
000064 EC?? F0??      00846         CALL    _USB_standard_request
000068 52E6           00847         MOVF    POSTINC1, F
00006A 52E6           00848         MOVF    POSTINC1, F
                      00849         .line   540; ../include/usb/usb_ep0.c   break;
00006C D???           00850         BRA     _00496_DS_
00006E                00851 _00493_DS_:
                      00852         .line   542; ../include/usb/usb_ep0.c   USB_CLASS_REQUEST();
00006E EC?? F0??      00853         CALL    _USB_request_error
                      00854         .line   543; ../include/usb/usb_ep0.c   break;
000072 D???           00855         BRA     _00496_DS_
000074                00856 _00494_DS_:
                      00857         .line   545; ../include/usb/usb_ep0.c   USB_VENDOR_REQUEST();
000074 EC?? F0??      00858         CALL    _USB_request_error
                      00859         .line   546; ../include/usb/usb_ep0.c   break;
000078 D???           00860         BRA     _00496_DS_
00007A                00861 _00495_DS_:
                      00862         .line   548; ../include/usb/usb_ep0.c   USB_request_error();
00007A EC?? F0??      00863         CALL    _USB_request_error
00007E                00864 _00496_DS_:
                      00865         .line   555; ../include/usb/usb_ep0.c   UCONbits.PKTDIS = 0;
00007E 98??           00866         BCF     _UCONbits, 4
000080 D???           00867         BRA     _00500_DS_
000082                00868 _00498_DS_:
                      00869         .line   571; ../include/usb/usb_ep0.c   USB_EP0_init();
000082 EC?? F0??      00870         CALL    _USB_EP0_init
000086                00871 _00500_DS_:
000086 CFE4 F000      00872         MOVFF   PREINC1, r0x03
00008A CFE4 F000      00873         MOVFF   PREINC1, r0x02
00008E CFE4 F000      00874         MOVFF   PREINC1, r0x01
000092 CFE4 F000      00875         MOVFF   PREINC1, r0x00
000096 CFE4 FFD9      00876         MOVFF   PREINC1, FSR2L
00009A 0012           00877         RETURN  
                      00878 
                      00879 ; ; Starting pCode block
                      00880 S_usb__USB_EP0_in_token code
000000                00881 _USB_EP0_in_token:
                      00882         .line   476; ../include/usb/usb_ep0.c   __once void USB_EP0_in_token(void)
000000 CFD9 FFE5      00883         MOVFF   FSR2L, POSTDEC1
000004 CFE1 FFD9      00884         MOVFF   FSR1L, FSR2L
000008 C??? F???      00885         MOVFF   r0x00, POSTDEC1
00000C ????           00886         BANKSEL _usbdev
                      00887         .line   488; ../include/usb/usb_ep0.c   if ( usbdev.state == ADDRESS_PENDING_STATE ) {
00000E 51??           00888         MOVF    _usbdev, W, B
000010 40E8           00889         RRNCF   WREG, W
000012 40E8           00890         RRNCF   WREG, W
000014 0B07           00891         ANDLW   0x07
Message[1301]: Using default destination of 0 (Access Bank).
000016 6E??           00892         MOVWF   r0x00
000018 50??           00893         MOVF    r0x00, W
00001A 0A04           00894         XORLW   0x04
00001C E1??           00895         BNZ     _00471_DS_
gpasm-1.4.0 #1107 (Feb 13 2015) ../include/us   4-21-2015  23:49:51         PAGE 19


LOC    OBJECT CODE    LINE  SOURCE TEXT
  VALUE

                      00896         .line   492; ../include/usb/usb_ep0.c   UADDR = USB_EP0_to_send.len;
00001E C??? F???      00897         MOVFF   _USB_EP0_to_send, _UADDR
                      00898         .line   493; ../include/usb/usb_ep0.c   if ( UADDR ) {
000022 50??           00899         MOVF    _UADDR, W
000024 E0??           00900         BZ      _00468_DS_
000026 ????           00901         BANKSEL _usbdev
                      00902         .line   494; ../include/usb/usb_ep0.c   usbdev.state = ADDRESS_STATE;
000028 51??           00903         MOVF    _usbdev, W, B
00002A 0BE3           00904         ANDLW   0xe3
00002C 0914           00905         IORLW   0x14
00002E ????           00906         BANKSEL _usbdev
000030 6F??           00907         MOVWF   _usbdev, B
000032 D???           00908         BRA     _00469_DS_
000034                00909 _00468_DS_:
000034 ????           00910         BANKSEL _usbdev
                      00911         .line   496; ../include/usb/usb_ep0.c   usbdev.state = DEFAULT_STATE;
000036 51??           00912         MOVF    _usbdev, W, B
000038 0BE3           00913         ANDLW   0xe3
00003A 090C           00914         IORLW   0x0c
00003C ????           00915         BANKSEL _usbdev
00003E 6F??           00916         MOVWF   _usbdev, B
000040                00917 _00469_DS_:
                      00918         .line   499; ../include/usb/usb_ep0.c   return;
000040 D???           00919         BRA     _00475_DS_
000042                00920 _00471_DS_:
000042 ????           00921         BANKSEL _USB_EP0_to_send
                      00922         .line   502; ../include/usb/usb_ep0.c   if ( USB_EP0_to_send.len ) {
000044 51??           00923         MOVF    _USB_EP0_to_send, W, B
000046 E0??           00924         BZ      _00473_DS_
000048 ????           00925         BANKSEL (_usb_bd + 7)
                      00926         .line   505; ../include/usb/usb_ep0.c   bd_in->cnt = USB_EP0_fill_adr(bd_in->adr);
00004A 51??           00927         MOVF    (_usb_bd + 7), W, B
Message[1301]: Using default destination of 0 (Access Bank).
00004C 6EE5           00928         MOVWF   POSTDEC1
00004E ????           00929         BANKSEL (_usb_bd + 6)
000050 51??           00930         MOVF    (_usb_bd + 6), W, B
Message[1301]: Using default destination of 0 (Access Bank).
000052 6EE5           00931         MOVWF   POSTDEC1
000054 EC?? F0??      00932         CALL    _USB_EP0_fill_adr
Message[1301]: Using default destination of 0 (Access Bank).
000058 6E??           00933         MOVWF   r0x00
00005A 52E6           00934         MOVF    POSTINC1, F
00005C 52E6           00935         MOVF    POSTINC1, F
00005E 50??           00936         MOVF    r0x00, W
000060 ????           00937         BANKSEL (_usb_bd + 5)
000062 6F??           00938         MOVWF   (_usb_bd + 5), B
                      00939         .line   509; ../include/usb/usb_ep0.c   bd_in->stat = BD_STAT_USIE | ((bd_in->stat&BD_STAT_MASK_
                            DTS)^BD_STAT_MASK_DTS) | BD_STAT_DTSEN;
000064 0E40           00940         MOVLW   0x40
000066 ????           00941         BANKSEL (_usb_bd + 4)
000068 15??           00942         ANDWF   (_usb_bd + 4), W, B
Message[1301]: Using default destination of 0 (Access Bank).
00006A 6E??           00943         MOVWF   r0x00
gpasm-1.4.0 #1107 (Feb 13 2015) ../include/us   4-21-2015  23:49:51         PAGE 20


LOC    OBJECT CODE    LINE  SOURCE TEXT
  VALUE

00006C 7C??           00944         BTG     r0x00, 6
00006E 0E88           00945         MOVLW   0x88
000070 12??           00946         IORWF   r0x00, F
000072 50??           00947         MOVF    r0x00, W
000074 ????           00948         BANKSEL (_usb_bd + 4)
000076 6F??           00949         MOVWF   (_usb_bd + 4), B
000078 D???           00950         BRA     _00475_DS_
00007A                00951 _00473_DS_:
                      00952         .line   520; ../include/usb/usb_ep0.c   bd_in->stat = BD_STAT_USIE | BD_STAT_BSTALL;
00007A 0E84           00953         MOVLW   0x84
00007C ????           00954         BANKSEL (_usb_bd + 4)
00007E 6F??           00955         MOVWF   (_usb_bd + 4), B
000080                00956 _00475_DS_:
000080 CFE4 F000      00957         MOVFF   PREINC1, r0x00
000084 CFE4 FFD9      00958         MOVFF   PREINC1, FSR2L
000088 0012           00959         RETURN  
                      00960 
                      00961 ; ; Starting pCode block
                      00962 S_usb__USB_EP0_init     code
000000                00963 _USB_EP0_init:
                      00964         .line   445; ../include/usb/usb_ep0.c   static void USB_EP0_init(void)
000000 CFD9 FFE5      00965         MOVFF   FSR2L, POSTDEC1
000004 CFE1 FFD9      00966         MOVFF   FSR1L, FSR2L
000008 C??? F???      00967         MOVFF   r0x00, POSTDEC1
00000C C??? F???      00968         MOVFF   r0x01, POSTDEC1
000010 C??? F???      00969         MOVFF   r0x02, POSTDEC1
000014 C??? F???      00970         MOVFF   r0x03, POSTDEC1
000018 C??? F???      00971         MOVFF   r0x04, POSTDEC1
00001C C??? F???      00972         MOVFF   r0x05, POSTDEC1
000020 C??? F???      00973         MOVFF   r0x06, POSTDEC1
000024 C??? F???      00974         MOVFF   r0x07, POSTDEC1
000028 C??? F???      00975         MOVFF   r0x08, POSTDEC1
                      00976         .line   450; ../include/usb/usb_ep0.c   bdpnt = usb_bd; /* ep0 buffer descriptors start the begi
                            nning of usb_bd */
00002C 0E??           00977         MOVLW   LOW(_usb_bd)
Message[1301]: Using default destination of 0 (Access Bank).
00002E 6E??           00978         MOVWF   r0x00
000030 0E??           00979         MOVLW   HIGH(_usb_bd)
Message[1301]: Using default destination of 0 (Access Bank).
000032 6E??           00980         MOVWF   r0x01
                      00981         .line   452; ../include/usb/usb_ep0.c   for (i = 0; i < ((sizeof(USB_EP0_out_buffer)/EP0_BUFFER_
                            SIZE)); ++i) {
Message[1301]: Using default destination of 0 (Access Bank).
000034 6A??           00982         CLRF    r0x02
Message[1301]: Using default destination of 0 (Access Bank).
000036 6A??           00983         CLRF    r0x03
Message[1301]: Using default destination of 0 (Access Bank).
000038 6A??           00984         CLRF    r0x04
00003A                00985 _00441_DS_:
                      00986         .line   453; ../include/usb/usb_ep0.c   bdpnt->cnt = EP0_BUFFER_SIZE;
00003A 50??           00987         MOVF    r0x00, W
00003C 0F01           00988         ADDLW   0x01
Message[1301]: Using default destination of 0 (Access Bank).
gpasm-1.4.0 #1107 (Feb 13 2015) ../include/us   4-21-2015  23:49:51         PAGE 21


LOC    OBJECT CODE    LINE  SOURCE TEXT
  VALUE

00003E 6E??           00989         MOVWF   r0x05
000040 0E00           00990         MOVLW   0x00
000042 20??           00991         ADDWFC  r0x01, W
Message[1301]: Using default destination of 0 (Access Bank).
000044 6E??           00992         MOVWF   r0x06
000046 C??? F???      00993         MOVFF   r0x05, FSR0L
00004A C??? F???      00994         MOVFF   r0x06, FSR0H
00004E 0E40           00995         MOVLW   0x40
Message[1301]: Using default destination of 0 (Access Bank).
000050 6EEF           00996         MOVWF   INDF0
                      00997         .line   454; ../include/usb/usb_ep0.c   bdpnt->adr = USB_EP0_out_buffer[i];     // EP0 OUT gets 
                            a buffer
000052 50??           00998         MOVF    r0x00, W
000054 0F02           00999         ADDLW   0x02
Message[1301]: Using default destination of 0 (Access Bank).
000056 6E??           01000         MOVWF   r0x05
000058 0E00           01001         MOVLW   0x00
00005A 20??           01002         ADDWFC  r0x01, W
Message[1301]: Using default destination of 0 (Access Bank).
00005C 6E??           01003         MOVWF   r0x06
00005E 0E??           01004         MOVLW   LOW(_USB_EP0_out_buffer)
000060 24??           01005         ADDWF   r0x03, W
Message[1301]: Using default destination of 0 (Access Bank).
000062 6E??           01006         MOVWF   r0x07
000064 0E??           01007         MOVLW   HIGH(_USB_EP0_out_buffer)
000066 20??           01008         ADDWFC  r0x04, W
Message[1301]: Using default destination of 0 (Access Bank).
000068 6E??           01009         MOVWF   r0x08
00006A C??? F???      01010         MOVFF   r0x05, FSR0L
00006E C??? F???      01011         MOVFF   r0x06, FSR0H
000072 C??? F???      01012         MOVFF   r0x07, POSTINC0
000076 C??? F???      01013         MOVFF   r0x08, INDF0
                      01014         .line   455; ../include/usb/usb_ep0.c   bdpnt->stat = BD_STAT_USIE | BD_STAT_DATA1 | BD_STAT_DTS
                            EN;          // set UOWN bit (SIE MODE)
00007A C??? F???      01015         MOVFF   r0x00, FSR0L
00007E C??? F???      01016         MOVFF   r0x01, FSR0H
000082 0EC8           01017         MOVLW   0xc8
Message[1301]: Using default destination of 0 (Access Bank).
000084 6EEF           01018         MOVWF   INDF0
                      01019         .line   457; ../include/usb/usb_ep0.c   bdpnt++; /* switch to the next buffer descriptor pointer
                             */
000086 0E04           01020         MOVLW   0x04
000088 26??           01021         ADDWF   r0x00, F
00008A B0D8           01022         BTFSC   STATUS, 0
00008C 2A??           01023         INCF    r0x01, F
                      01024         .line   452; ../include/usb/usb_ep0.c   for (i = 0; i < ((sizeof(USB_EP0_out_buffer)/EP0_BUFFER_
                            SIZE)); ++i) {
00008E 0E40           01025         MOVLW   0x40
000090 26??           01026         ADDWF   r0x03, F
000092 B0D8           01027         BTFSC   STATUS, 0
000094 2A??           01028         INCF    r0x04, F
000096 2A??           01029         INCF    r0x02, F
000098 0E01           01030         MOVLW   0x01
gpasm-1.4.0 #1107 (Feb 13 2015) ../include/us   4-21-2015  23:49:51         PAGE 22


LOC    OBJECT CODE    LINE  SOURCE TEXT
  VALUE

00009A 5C??           01031         SUBWF   r0x02, W
00009C E3??           01032         BNC     _00441_DS_
                      01033         .line   460; ../include/usb/usb_ep0.c   for (i = 0; i < ((sizeof(USB_EP0_in_buffer)/EP0_BUFFER_S
                            IZE)); ++i) {
Message[1301]: Using default destination of 0 (Access Bank).
00009E 6A??           01034         CLRF    r0x02
Message[1301]: Using default destination of 0 (Access Bank).
0000A0 6A??           01035         CLRF    r0x03
Message[1301]: Using default destination of 0 (Access Bank).
0000A2 6A??           01036         CLRF    r0x04
0000A4                01037 _00443_DS_:
                      01038         .line   461; ../include/usb/usb_ep0.c   bdpnt->adr = USB_EP0_in_buffer[i]; // EP0 IN gets a buff
                            er
0000A4 50??           01039         MOVF    r0x00, W
0000A6 0F02           01040         ADDLW   0x02
Message[1301]: Using default destination of 0 (Access Bank).
0000A8 6E??           01041         MOVWF   r0x05
0000AA 0E00           01042         MOVLW   0x00
0000AC 20??           01043         ADDWFC  r0x01, W
Message[1301]: Using default destination of 0 (Access Bank).
0000AE 6E??           01044         MOVWF   r0x06
0000B0 0E??           01045         MOVLW   LOW(_USB_EP0_in_buffer)
0000B2 24??           01046         ADDWF   r0x03, W
Message[1301]: Using default destination of 0 (Access Bank).
0000B4 6E??           01047         MOVWF   r0x07
0000B6 0E??           01048         MOVLW   HIGH(_USB_EP0_in_buffer)
0000B8 20??           01049         ADDWFC  r0x04, W
Message[1301]: Using default destination of 0 (Access Bank).
0000BA 6E??           01050         MOVWF   r0x08
0000BC C??? F???      01051         MOVFF   r0x05, FSR0L
0000C0 C??? F???      01052         MOVFF   r0x06, FSR0H
0000C4 C??? F???      01053         MOVFF   r0x07, POSTINC0
0000C8 C??? F???      01054         MOVFF   r0x08, INDF0
                      01055         .line   462; ../include/usb/usb_ep0.c   bdpnt->stat = BD_STAT_UCPU | BD_STAT_DATA1 | BD_STAT_DTS
                            EN;  // clear UOWN bit (CPU MODE)
0000CC C??? F???      01056         MOVFF   r0x00, FSR0L
0000D0 C??? F???      01057         MOVFF   r0x01, FSR0H
0000D4 0E48           01058         MOVLW   0x48
Message[1301]: Using default destination of 0 (Access Bank).
0000D6 6EEF           01059         MOVWF   INDF0
                      01060         .line   464; ../include/usb/usb_ep0.c   bdpnt++; /* switch to the next buffer descriptor pointer
                             */
0000D8 0E04           01061         MOVLW   0x04
0000DA 26??           01062         ADDWF   r0x00, F
0000DC B0D8           01063         BTFSC   STATUS, 0
0000DE 2A??           01064         INCF    r0x01, F
                      01065         .line   460; ../include/usb/usb_ep0.c   for (i = 0; i < ((sizeof(USB_EP0_in_buffer)/EP0_BUFFER_S
                            IZE)); ++i) {
0000E0 0E40           01066         MOVLW   0x40
0000E2 26??           01067         ADDWF   r0x03, F
0000E4 B0D8           01068         BTFSC   STATUS, 0
0000E6 2A??           01069         INCF    r0x04, F
0000E8 2A??           01070         INCF    r0x02, F
gpasm-1.4.0 #1107 (Feb 13 2015) ../include/us   4-21-2015  23:49:51         PAGE 23


LOC    OBJECT CODE    LINE  SOURCE TEXT
  VALUE

0000EA 0E01           01071         MOVLW   0x01
0000EC 5C??           01072         SUBWF   r0x02, W
0000EE E3??           01073         BNC     _00443_DS_
0000F0 ????           01074         BANKSEL _USB_EP0_to_send
                      01075         .line   468; ../include/usb/usb_ep0.c   USB_EP0_to_send.len = 0;
0000F2 6B??           01076         CLRF    _USB_EP0_to_send, B
0000F4 ????           01077         BANKSEL (_USB_EP0_to_send + 1)
                      01078         .line   469; ../include/usb/usb_ep0.c   USB_EP0_to_send.buff = (unsigned char *)0;
0000F6 6B??           01079         CLRF    (_USB_EP0_to_send + 1), B
0000F8 ????           01080         BANKSEL (_USB_EP0_to_send + 2)
0000FA 6B??           01081         CLRF    (_USB_EP0_to_send + 2), B
0000FC ????           01082         BANKSEL (_USB_EP0_to_send + 3)
0000FE 6B??           01083         CLRF    (_USB_EP0_to_send + 3), B
                      01084         .line   471; ../include/usb/usb_ep0.c   UEP0 = UEP_EPHSHK | UEP_EPOUTEN | UEP_EPINEN; // EP0 is 
                            a control pipe and requires an ACK
000100 0E16           01085         MOVLW   0x16
Message[1301]: Using default destination of 0 (Access Bank).
000102 6E??           01086         MOVWF   _UEP0
000104 CFE4 F000      01087         MOVFF   PREINC1, r0x08
000108 CFE4 F000      01088         MOVFF   PREINC1, r0x07
00010C CFE4 F000      01089         MOVFF   PREINC1, r0x06
000110 CFE4 F000      01090         MOVFF   PREINC1, r0x05
000114 CFE4 F000      01091         MOVFF   PREINC1, r0x04
000118 CFE4 F000      01092         MOVFF   PREINC1, r0x03
00011C CFE4 F000      01093         MOVFF   PREINC1, r0x02
000120 CFE4 F000      01094         MOVFF   PREINC1, r0x01
000124 CFE4 F000      01095         MOVFF   PREINC1, r0x00
000128 CFE4 FFD9      01096         MOVFF   PREINC1, FSR2L
00012C 0012           01097         RETURN  
                      01098 
                      01099 ; ; Starting pCode block
                      01100 S_usb__USB_standard_request     code
000000                01101 _USB_standard_request:
                      01102         .line   104; ../include/usb/usb_ep0.c   static void USB_standard_request(const struct usb_contro
                            lrequest __near * const USB_buffer)
000000 CFD9 FFE5      01103         MOVFF   FSR2L, POSTDEC1
000004 CFE1 FFD9      01104         MOVFF   FSR1L, FSR2L
000008 C??? F???      01105         MOVFF   r0x00, POSTDEC1
00000C C??? F???      01106         MOVFF   r0x01, POSTDEC1
000010 C??? F???      01107         MOVFF   r0x02, POSTDEC1
000014 C??? F???      01108         MOVFF   r0x03, POSTDEC1
000018 C??? F???      01109         MOVFF   r0x04, POSTDEC1
00001C C??? F???      01110         MOVFF   r0x05, POSTDEC1
000020 C??? F???      01111         MOVFF   r0x06, POSTDEC1
000024 C??? F???      01112         MOVFF   r0x07, POSTDEC1
000028 C??? F???      01113         MOVFF   r0x08, POSTDEC1
00002C C??? F???      01114         MOVFF   r0x09, POSTDEC1
000030 C??? F???      01115         MOVFF   r0x0a, POSTDEC1
000034 0E02           01116         MOVLW   0x02
000036 CFDB F000      01117         MOVFF   PLUSW2, r0x00
00003A 0E03           01118         MOVLW   0x03
00003C CFDB F000      01119         MOVFF   PLUSW2, r0x01
000040 ????           01120         BANKSEL (_usb_bd + 7)
gpasm-1.4.0 #1107 (Feb 13 2015) ../include/us   4-21-2015  23:49:51         PAGE 24


LOC    OBJECT CODE    LINE  SOURCE TEXT
  VALUE

                      01121         .line   147; ../include/usb/usb_ep0.c   USB_EP0_to_send.buff = bd_in->adr;
000042 51??           01122         MOVF    (_usb_bd + 7), W, B
Message[1301]: Using default destination of 0 (Access Bank).
000044 6E??           01123         MOVWF   r0x03
000046 ????           01124         BANKSEL (_usb_bd + 6)
000048 51??           01125         MOVF    (_usb_bd + 6), W, B
Message[1301]: Using default destination of 0 (Access Bank).
00004A 6E??           01126         MOVWF   r0x02
00004C 0E80           01127         MOVLW   0x80
Message[1301]: Using default destination of 0 (Access Bank).
00004E 6E??           01128         MOVWF   r0x04
000050 50??           01129         MOVF    r0x02, W
000052 ????           01130         BANKSEL (_USB_EP0_to_send + 1)
000054 6F??           01131         MOVWF   (_USB_EP0_to_send + 1), B
000056 50??           01132         MOVF    r0x03, W
000058 ????           01133         BANKSEL (_USB_EP0_to_send + 2)
00005A 6F??           01134         MOVWF   (_USB_EP0_to_send + 2), B
00005C 50??           01135         MOVF    r0x04, W
00005E ????           01136         BANKSEL (_USB_EP0_to_send + 3)
000060 6F??           01137         MOVWF   (_USB_EP0_to_send + 3), B
000062 ????           01138         BANKSEL _USB_EP0_to_send
                      01139         .line   148; ../include/usb/usb_ep0.c   USB_EP0_to_send.len = 0;
000064 6B??           01140         CLRF    _USB_EP0_to_send, B
                      01141         .line   150; ../include/usb/usb_ep0.c   switch (USB_buffer->bRequest) {
000066 50??           01142         MOVF    r0x00, W
000068 0F01           01143         ADDLW   0x01
Message[1301]: Using default destination of 0 (Access Bank).
00006A 6E??           01144         MOVWF   r0x02
00006C 0E00           01145         MOVLW   0x00
00006E 20??           01146         ADDWFC  r0x01, W
Message[1301]: Using default destination of 0 (Access Bank).
000070 6E??           01147         MOVWF   r0x03
000072 C??? F???      01148         MOVFF   r0x02, FSR0L
000076 C??? F???      01149         MOVFF   r0x03, FSR0H
00007A CFEF F000      01150         MOVFF   INDF0, r0x02
00007E 0E0D           01151         MOVLW   0x0d
000080 5C??           01152         SUBWF   r0x02, W
000082 B0D8           01153         BTFSC   STATUS, 0
000084 EF?? F0??      01154         GOTO    _00242_DS_
Message[1301]: Using default destination of 0 (Access Bank).
000088 6AFA           01155         CLRF    PCLATH
Message[1301]: Using default destination of 0 (Access Bank).
00008A 6AFB           01156         CLRF    PCLATU
00008C 34??           01157         RLCF    r0x02, W
00008E 36FA           01158         RLCF    PCLATH, F
000090 34E8           01159         RLCF    WREG, W
000092 36FA           01160         RLCF    PCLATH, F
000094 0BFC           01161         ANDLW   0xfc
000096 0F??           01162         ADDLW   LOW(_00373_DS_)
Message[1301]: Using default destination of 0 (Access Bank).
000098 6EE5           01163         MOVWF   POSTDEC1
00009A 0E??           01164         MOVLW   HIGH(_00373_DS_)
00009C 22FA           01165         ADDWFC  PCLATH, F
gpasm-1.4.0 #1107 (Feb 13 2015) ../include/us   4-21-2015  23:49:51         PAGE 25


LOC    OBJECT CODE    LINE  SOURCE TEXT
  VALUE

00009E 0E??           01166         MOVLW   UPPER(_00373_DS_)
0000A0 22FB           01167         ADDWFC  PCLATU, F
0000A2 50E4           01168         MOVF    PREINC1, W
Message[1301]: Using default destination of 0 (Access Bank).
0000A4 6EF9           01169         MOVWF   PCL
0000A6                01170 _00373_DS_:
0000A6 EF?? F0??      01171         GOTO    _00148_DS_
0000AA EF?? F0??      01172         GOTO    _00170_DS_
0000AE EF?? F0??      01173         GOTO    _00231_DS_
0000B2 EF?? F0??      01174         GOTO    _00170_DS_
0000B6 EF?? F0??      01175         GOTO    _00231_DS_
0000BA EF?? F0??      01176         GOTO    _00194_DS_
0000BE EF?? F0??      01177         GOTO    _00197_DS_
0000C2 EF?? F0??      01178         GOTO    _00231_DS_
0000C6 EF?? F0??      01179         GOTO    _00211_DS_
0000CA EF?? F0??      01180         GOTO    _00212_DS_
0000CE EF?? F0??      01181         GOTO    _00217_DS_
0000D2 EF?? F0??      01182         GOTO    _00223_DS_
0000D6 EF?? F0??      01183         GOTO    _00231_DS_
0000DA                01184 _00148_DS_:
                      01185         .line   152; ../include/usb/usb_ep0.c   switch (USB_buffer->bmRequestType&0x1F) {       // extra
                            ct request recipient bits
0000DA C??? F???      01186         MOVFF   r0x00, FSR0L
0000DE C??? F???      01187         MOVFF   r0x01, FSR0H
0000E2 CFEF F000      01188         MOVFF   INDF0, r0x03
0000E6 0E1F           01189         MOVLW   0x1f
0000E8 16??           01190         ANDWF   r0x03, F
0000EA 0E03           01191         MOVLW   0x03
0000EC 5C??           01192         SUBWF   r0x03, W
0000EE B0D8           01193         BTFSC   STATUS, 0
0000F0 EF?? F0??      01194         GOTO    _00242_DS_
Message[1301]: Using default destination of 0 (Access Bank).
0000F4 6AFA           01195         CLRF    PCLATH
Message[1301]: Using default destination of 0 (Access Bank).
0000F6 6AFB           01196         CLRF    PCLATU
0000F8 34??           01197         RLCF    r0x03, W
0000FA 36FA           01198         RLCF    PCLATH, F
0000FC 34E8           01199         RLCF    WREG, W
0000FE 36FA           01200         RLCF    PCLATH, F
000100 0BFC           01201         ANDLW   0xfc
000102 0F??           01202         ADDLW   LOW(_00376_DS_)
Message[1301]: Using default destination of 0 (Access Bank).
000104 6EE5           01203         MOVWF   POSTDEC1
000106 0E??           01204         MOVLW   HIGH(_00376_DS_)
000108 22FA           01205         ADDWFC  PCLATH, F
00010A 0E??           01206         MOVLW   UPPER(_00376_DS_)
00010C 22FB           01207         ADDWFC  PCLATU, F
00010E 50E4           01208         MOVF    PREINC1, W
Message[1301]: Using default destination of 0 (Access Bank).
000110 6EF9           01209         MOVWF   PCL
000112                01210 _00376_DS_:
000112 EF?? F0??      01211         GOTO    _00149_DS_
000116 EF?? F0??      01212         GOTO    _00150_DS_
gpasm-1.4.0 #1107 (Feb 13 2015) ../include/us   4-21-2015  23:49:51         PAGE 26


LOC    OBJECT CODE    LINE  SOURCE TEXT
  VALUE

00011A EF?? F0??      01213         GOTO    _00156_DS_
00011E                01214 _00149_DS_:
                      01215         .line   154; ../include/usb/usb_ep0.c   USB_EP0_to_send.buff[0] = usbdev.status;
00011E C??? F???      01216         MOVFF   (_USB_EP0_to_send + 1), r0x03
000122 C??? F???      01217         MOVFF   (_USB_EP0_to_send + 2), r0x04
000126 C??? F???      01218         MOVFF   (_USB_EP0_to_send + 3), r0x05
00012A ????           01219         BANKSEL _usbdev
00012C 51??           01220         MOVF    _usbdev, W, B
00012E 0B03           01221         ANDLW   0x03
Message[1301]: Using default destination of 0 (Access Bank).
000130 6E??           01222         MOVWF   r0x06
000132 C??? F???      01223         MOVFF   r0x06, POSTDEC1
000136 C??? F???      01224         MOVFF   r0x03, FSR0L
00013A C??? F???      01225         MOVFF   r0x04, PRODL
00013E 50??           01226         MOVF    r0x05, W
000140 EC?? F0??      01227         CALL    __gptrput1
                      01228         .line   155; ../include/usb/usb_ep0.c   break;
000144 D???           01229         BRA     _00168_DS_
000146                01230 _00150_DS_:
000146 ????           01231         BANKSEL _usbdev
                      01232         .line   157; ../include/usb/usb_ep0.c   switch (usbdev.state) {
000148 51??           01233         MOVF    _usbdev, W, B
00014A 40E8           01234         RRNCF   WREG, W
00014C 40E8           01235         RRNCF   WREG, W
00014E 0B07           01236         ANDLW   0x07
Message[1301]: Using default destination of 0 (Access Bank).
000150 6E??           01237         MOVWF   r0x03
000152 50??           01238         MOVF    r0x03, W
000154 0A05           01239         XORLW   0x05
000156 E1??           01240         BNZ     _00378_DS_
000158 EF?? F0??      01241         GOTO    _00242_DS_
00015C                01242 _00378_DS_:
00015C 50??           01243         MOVF    r0x03, W
00015E 0A07           01244         XORLW   0x07
000160 E0??           01245         BZ      _00380_DS_
000162 D???           01246         BRA     _00168_DS_
000164                01247 _00380_DS_:
                      01248         .line   161; ../include/usb/usb_ep0.c   if (USB_buffer->wIndexLow >= NUM_INTERFACES) {
000164 50??           01249         MOVF    r0x00, W
000166 0F04           01250         ADDLW   0x04
Message[1301]: Using default destination of 0 (Access Bank).
000168 6E??           01251         MOVWF   r0x03
00016A 0E00           01252         MOVLW   0x00
00016C 20??           01253         ADDWFC  r0x01, W
Message[1301]: Using default destination of 0 (Access Bank).
00016E 6E??           01254         MOVWF   r0x04
000170 C??? F???      01255         MOVFF   r0x03, FSR0L
000174 C??? F???      01256         MOVFF   r0x04, FSR0H
000178 CFEF F000      01257         MOVFF   INDF0, r0x03
00017C 0E01           01258         MOVLW   0x01
00017E 5C??           01259         SUBWF   r0x03, W
000180 B0D8           01260         BTFSC   STATUS, 0
000182 EF?? F0??      01261         GOTO    _00242_DS_
gpasm-1.4.0 #1107 (Feb 13 2015) ../include/us   4-21-2015  23:49:51         PAGE 27


LOC    OBJECT CODE    LINE  SOURCE TEXT
  VALUE

                      01262         .line   164; ../include/usb/usb_ep0.c   USB_EP0_to_send.buff[0] = 0x00;
000186 C??? F???      01263         MOVFF   (_USB_EP0_to_send + 1), r0x03
00018A C??? F???      01264         MOVFF   (_USB_EP0_to_send + 2), r0x04
00018E C??? F???      01265         MOVFF   (_USB_EP0_to_send + 3), r0x05
000192 0E00           01266         MOVLW   0x00
Message[1301]: Using default destination of 0 (Access Bank).
000194 6EE5           01267         MOVWF   POSTDEC1
000196 C??? F???      01268         MOVFF   r0x03, FSR0L
00019A C??? F???      01269         MOVFF   r0x04, PRODL
00019E 50??           01270         MOVF    r0x05, W
0001A0 EC?? F0??      01271         CALL    __gptrput1
                      01272         .line   166; ../include/usb/usb_ep0.c   break;
0001A4 D???           01273         BRA     _00168_DS_
0001A6                01274 _00156_DS_:
                      01275         .line   169; ../include/usb/usb_ep0.c   n = USB_buffer->wIndexLow&0x0F;
0001A6 50??           01276         MOVF    r0x00, W
0001A8 0F04           01277         ADDLW   0x04
Message[1301]: Using default destination of 0 (Access Bank).
0001AA 6E??           01278         MOVWF   r0x03
0001AC 0E00           01279         MOVLW   0x00
0001AE 20??           01280         ADDWFC  r0x01, W
Message[1301]: Using default destination of 0 (Access Bank).
0001B0 6E??           01281         MOVWF   r0x04
0001B2 C??? F???      01282         MOVFF   r0x03, FSR0L
0001B6 C??? F???      01283         MOVFF   r0x04, FSR0H
0001BA CFEF F000      01284         MOVFF   INDF0, r0x03
0001BE 0E0F           01285         MOVLW   0x0f
0001C0 16??           01286         ANDWF   r0x03, F
0001C2 ????           01287         BANKSEL _usbdev
                      01288         .line   170; ../include/usb/usb_ep0.c   switch (usbdev.state) {
0001C4 51??           01289         MOVF    _usbdev, W, B
0001C6 40E8           01290         RRNCF   WREG, W
0001C8 40E8           01291         RRNCF   WREG, W
0001CA 0B07           01292         ANDLW   0x07
Message[1301]: Using default destination of 0 (Access Bank).
0001CC 6E??           01293         MOVWF   r0x04
0001CE 50??           01294         MOVF    r0x04, W
0001D0 0A05           01295         XORLW   0x05
0001D2 E0??           01296         BZ      _00157_DS_
0001D4 50??           01297         MOVF    r0x04, W
0001D6 0A07           01298         XORLW   0x07
0001D8 E0??           01299         BZ      _00160_DS_
0001DA EF?? F0??      01300         GOTO    _00242_DS_
0001DE                01301 _00157_DS_:
                      01302         .line   173; ../include/usb/usb_ep0.c   if ( n ) {
0001DE 50??           01303         MOVF    r0x03, W
0001E0 A4D8           01304         BTFSS   STATUS, 2
0001E2 EF?? F0??      01305         GOTO    _00242_DS_
                      01306         .line   177; ../include/usb/usb_ep0.c   USB_EP0_to_send.buff[0] = (((USB_buffer->data_transfer_d
                            irection) ? USB_BD_IN_EP0()->stat : USB_BD_OUT_EP0()->stat)&0x04)>>2;
0001E6 C??? F???      01307         MOVFF   (_USB_EP0_to_send + 1), r0x04
0001EA C??? F???      01308         MOVFF   (_USB_EP0_to_send + 2), r0x05
0001EE C??? F???      01309         MOVFF   (_USB_EP0_to_send + 3), r0x06
gpasm-1.4.0 #1107 (Feb 13 2015) ../include/us   4-21-2015  23:49:51         PAGE 28


LOC    OBJECT CODE    LINE  SOURCE TEXT
  VALUE

0001F2 C??? F???      01310         MOVFF   r0x00, r0x07
0001F6 C??? F???      01311         MOVFF   r0x01, r0x08
Message[1301]: Using default destination of 0 (Access Bank).
0001FA 6AE8           01312         CLRF    WREG
0001FC C??? F???      01313         MOVFF   r0x07, FSR0L
000200 C??? F???      01314         MOVFF   r0x08, FSR0H
000204 BEEF           01315         BTFSC   INDF0, 7
000206 2AE8           01316         INCF    WREG, F
Message[1301]: Using default destination of 0 (Access Bank).
000208 6E??           01317         MOVWF   r0x07
00020A 50??           01318         MOVF    r0x07, W
00020C E0??           01319         BZ      _00245_DS_
00020E C??? F???      01320         MOVFF   (_usb_bd + 4), r0x07
000212 D???           01321         BRA     _00246_DS_
000214                01322 _00245_DS_:
000214 C??? F???      01323         MOVFF   _usb_bd, r0x07
000218                01324 _00246_DS_:
000218 0E04           01325         MOVLW   0x04
00021A 16??           01326         ANDWF   r0x07, F
00021C 40??           01327         RRNCF   r0x07, W
00021E 40E8           01328         RRNCF   WREG, W
000220 0B3F           01329         ANDLW   0x3f
Message[1301]: Using default destination of 0 (Access Bank).
000222 6E??           01330         MOVWF   r0x07
000224 C??? F???      01331         MOVFF   r0x07, POSTDEC1
000228 C??? F???      01332         MOVFF   r0x04, FSR0L
00022C C??? F???      01333         MOVFF   r0x05, PRODL
000230 50??           01334         MOVF    r0x06, W
000232 EC?? F0??      01335         CALL    __gptrput1
                      01336         .line   178; ../include/usb/usb_ep0.c   break;
000236 D???           01337         BRA     _00168_DS_
000238                01338 _00160_DS_:
                      01339         .line   181; ../include/usb/usb_ep0.c   if ( n > USB_CONFIG_NUM_ENDPOINTS ) {
000238 0E03           01340         MOVLW   0x03
00023A 5C??           01341         SUBWF   r0x03, W
00023C B0D8           01342         BTFSC   STATUS, 0
00023E EF?? F0??      01343         GOTO    _00242_DS_
                      01344         .line   185; ../include/usb/usb_ep0.c   if ( ! (UEP[n] & ((USB_buffer->data_transfer_direction) 
                            ? 0x02:0x04)) )  {
000242 0E??           01345         MOVLW   LOW(_UEP0)
000244 24??           01346         ADDWF   r0x03, W
Message[1301]: Using default destination of 0 (Access Bank).
000246 6E??           01347         MOVWF   r0x04
Message[1301]: Using default destination of 0 (Access Bank).
000248 6A??           01348         CLRF    r0x05
00024A 0E??           01349         MOVLW   HIGH(_UEP0)
00024C 22??           01350         ADDWFC  r0x05, F
00024E C??? F???      01351         MOVFF   r0x04, FSR0L
000252 C??? F???      01352         MOVFF   r0x05, FSR0H
000256 CFEF F000      01353         MOVFF   INDF0, r0x04
00025A A4??           01354         BTFSS   r0x04, 2
00025C EF?? F0??      01355         GOTO    _00242_DS_
                      01356         .line   190; ../include/usb/usb_ep0.c   buf_desc_ptr = (USB_buffer->data_transfer_direction) ? U
gpasm-1.4.0 #1107 (Feb 13 2015) ../include/us   4-21-2015  23:49:51         PAGE 29


LOC    OBJECT CODE    LINE  SOURCE TEXT
  VALUE

                            SB_BD_IN_EP(n) : USB_BD_OUT_EP(n);
000260 C??? F???      01357         MOVFF   r0x00, r0x04
000264 C??? F???      01358         MOVFF   r0x01, r0x05
Message[1301]: Using default destination of 0 (Access Bank).
000268 6AE8           01359         CLRF    WREG
00026A C??? F???      01360         MOVFF   r0x04, FSR0L
00026E C??? F???      01361         MOVFF   r0x05, FSR0H
000272 BEEF           01362         BTFSC   INDF0, 7
000274 2AE8           01363         INCF    WREG, F
Message[1301]: Using default destination of 0 (Access Bank).
000276 6E??           01364         MOVWF   r0x04
000278 50??           01365         MOVF    r0x04, W
00027A E0??           01366         BZ      _00247_DS_
00027C 44??           01367         RLNCF   r0x03, W
00027E 0BFE           01368         ANDLW   0xfe
Message[1301]: Using default destination of 0 (Access Bank).
000280 6E??           01369         MOVWF   r0x04
000282 2A??           01370         INCF    r0x04, F
                      01371 ; ;multiply lit val:0x04 by variable r0x04 and store in r0x04
000284 50??           01372         MOVF    r0x04, W
000286 0D04           01373         MULLW   0x04
000288 50F4           01374         MOVF    PRODH, W
Message[1301]: Using default destination of 0 (Access Bank).
00028A 6E??           01375         MOVWF   r0x05
00028C CFF3 F000      01376         MOVFF   PRODL, r0x04
000290 0E??           01377         MOVLW   LOW(_usb_bd)
000292 26??           01378         ADDWF   r0x04, F
000294 0E??           01379         MOVLW   HIGH(_usb_bd)
000296 22??           01380         ADDWFC  r0x05, F
000298 D???           01381         BRA     _00248_DS_
00029A                01382 _00247_DS_:
00029A 44??           01383         RLNCF   r0x03, W
00029C 0BFE           01384         ANDLW   0xfe
Message[1301]: Using default destination of 0 (Access Bank).
00029E 6E??           01385         MOVWF   r0x06
                      01386 ; ;multiply lit val:0x04 by variable r0x06 and store in r0x06
0002A0 50??           01387         MOVF    r0x06, W
0002A2 0D04           01388         MULLW   0x04
0002A4 50F4           01389         MOVF    PRODH, W
Message[1301]: Using default destination of 0 (Access Bank).
0002A6 6E??           01390         MOVWF   r0x07
0002A8 CFF3 F000      01391         MOVFF   PRODL, r0x06
0002AC 0E??           01392         MOVLW   LOW(_usb_bd)
0002AE 24??           01393         ADDWF   r0x06, W
Message[1301]: Using default destination of 0 (Access Bank).
0002B0 6E??           01394         MOVWF   r0x04
0002B2 0E??           01395         MOVLW   HIGH(_usb_bd)
0002B4 20??           01396         ADDWFC  r0x07, W
Message[1301]: Using default destination of 0 (Access Bank).
0002B6 6E??           01397         MOVWF   r0x05
0002B8                01398 _00248_DS_:
                      01399         .line   192; ../include/usb/usb_ep0.c   USB_EP0_to_send.buff[0] = ( (buf_desc_ptr->stat) & 0x04)
                             >> 2;
gpasm-1.4.0 #1107 (Feb 13 2015) ../include/us   4-21-2015  23:49:51         PAGE 30


LOC    OBJECT CODE    LINE  SOURCE TEXT
  VALUE

0002B8 C??? F???      01400         MOVFF   (_USB_EP0_to_send + 1), r0x06
0002BC C??? F???      01401         MOVFF   (_USB_EP0_to_send + 2), r0x07
0002C0 C??? F???      01402         MOVFF   (_USB_EP0_to_send + 3), r0x08
0002C4 C??? F???      01403         MOVFF   r0x04, FSR0L
0002C8 C??? F???      01404         MOVFF   r0x05, FSR0H
0002CC CFEF F000      01405         MOVFF   INDF0, r0x09
0002D0 0E04           01406         MOVLW   0x04
0002D2 16??           01407         ANDWF   r0x09, F
0002D4 40??           01408         RRNCF   r0x09, W
0002D6 40E8           01409         RRNCF   WREG, W
0002D8 0B3F           01410         ANDLW   0x3f
Message[1301]: Using default destination of 0 (Access Bank).
0002DA 6E??           01411         MOVWF   r0x09
0002DC C??? F???      01412         MOVFF   r0x09, POSTDEC1
0002E0 C??? F???      01413         MOVFF   r0x06, FSR0L
0002E4 C??? F???      01414         MOVFF   r0x07, PRODL
0002E8 50??           01415         MOVF    r0x08, W
0002EA EC?? F0??      01416         CALL    __gptrput1
0002EE                01417 _00168_DS_:
0002EE ????           01418         BANKSEL (_USB_EP0_to_send + 1)
                      01419         .line   201; ../include/usb/usb_ep0.c   USB_EP0_to_send.buff[1] = 0x00;
0002F0 51??           01420         MOVF    (_USB_EP0_to_send + 1), W, B
0002F2 0F01           01421         ADDLW   0x01
Message[1301]: Using default destination of 0 (Access Bank).
0002F4 6E??           01422         MOVWF   r0x06
0002F6 0E00           01423         MOVLW   0x00
0002F8 ????           01424         BANKSEL (_USB_EP0_to_send + 2)
0002FA 21??           01425         ADDWFC  (_USB_EP0_to_send + 2), W, B
Message[1301]: Using default destination of 0 (Access Bank).
0002FC 6E??           01426         MOVWF   r0x07
0002FE 0E00           01427         MOVLW   0x00
000300 ????           01428         BANKSEL (_USB_EP0_to_send + 3)
000302 21??           01429         ADDWFC  (_USB_EP0_to_send + 3), W, B
Message[1301]: Using default destination of 0 (Access Bank).
000304 6E??           01430         MOVWF   r0x08
000306 0E00           01431         MOVLW   0x00
Message[1301]: Using default destination of 0 (Access Bank).
000308 6EE5           01432         MOVWF   POSTDEC1
00030A C??? F???      01433         MOVFF   r0x06, FSR0L
00030E C??? F???      01434         MOVFF   r0x07, PRODL
000312 50??           01435         MOVF    r0x08, W
000314 EC?? F0??      01436         CALL    __gptrput1
                      01437         .line   202; ../include/usb/usb_ep0.c   USB_EP0_to_send.len = 2;
000318 0E02           01438         MOVLW   0x02
00031A ????           01439         BANKSEL _USB_EP0_to_send
00031C 6F??           01440         MOVWF   _USB_EP0_to_send, B
                      01441         .line   203; ../include/usb/usb_ep0.c   break;
00031E EF?? F0??      01442         GOTO    _00232_DS_
000322                01443 _00170_DS_:
                      01444         .line   206; ../include/usb/usb_ep0.c   switch (USB_buffer->bmRequestType&0x1F) {       // extra
                            ct request recipient bits
000322 C??? F???      01445         MOVFF   r0x00, FSR0L
000326 C??? F???      01446         MOVFF   r0x01, FSR0H
gpasm-1.4.0 #1107 (Feb 13 2015) ../include/us   4-21-2015  23:49:51         PAGE 31


LOC    OBJECT CODE    LINE  SOURCE TEXT
  VALUE

00032A CFEF F000      01447         MOVFF   INDF0, r0x06
00032E 0E1F           01448         MOVLW   0x1f
000330 16??           01449         ANDWF   r0x06, F
000332 50??           01450         MOVF    r0x06, W
000334 E0??           01451         BZ      _00171_DS_
000336 50??           01452         MOVF    r0x06, W
000338 0A02           01453         XORLW   0x02
00033A E1??           01454         BNZ     _00395_DS_
00033C D???           01455         BRA     _00178_DS_
00033E                01456 _00395_DS_:
00033E EF?? F0??      01457         GOTO    _00242_DS_
000342                01458 _00171_DS_:
                      01459         .line   208; ../include/usb/usb_ep0.c   switch (USB_buffer->wValueLow) {
000342 50??           01460         MOVF    r0x00, W
000344 0F02           01461         ADDLW   0x02
Message[1301]: Using default destination of 0 (Access Bank).
000346 6E??           01462         MOVWF   r0x06
000348 0E00           01463         MOVLW   0x00
00034A 20??           01464         ADDWFC  r0x01, W
Message[1301]: Using default destination of 0 (Access Bank).
00034C 6E??           01465         MOVWF   r0x07
00034E C??? F???      01466         MOVFF   r0x06, FSR0L
000352 C??? F???      01467         MOVFF   r0x07, FSR0H
000356 CFEF F000      01468         MOVFF   INDF0, r0x06
00035A 50??           01469         MOVF    r0x06, W
00035C 0A02           01470         XORLW   0x02
00035E E0??           01471         BZ      _00397_DS_
000360 EF?? F0??      01472         GOTO    _00242_DS_
000364                01473 _00397_DS_:
                      01474         .line   210; ../include/usb/usb_ep0.c   if (USB_buffer->bRequest == USB_REQ_CLEAR_FEATURE)
000364 50??           01475         MOVF    r0x02, W
000366 0A01           01476         XORLW   0x01
000368 E1??           01477         BNZ     _00174_DS_
00036A                01478 _00399_DS_:
00036A ????           01479         BANKSEL _usbdev
                      01480         .line   211; ../include/usb/usb_ep0.c   usbdev.status &= ~USB_DEVICE_REMOTE_WAKEUP;
00036C 51??           01481         MOVF    _usbdev, W, B
00036E 0B03           01482         ANDLW   0x03
Message[1301]: Using default destination of 0 (Access Bank).
000370 6E??           01483         MOVWF   r0x06
000372 92??           01484         BCF     r0x06, 1
000374 50??           01485         MOVF    r0x06, W
000376 0B03           01486         ANDLW   0x03
Message[1301]: Using default destination of 0 (Access Bank).
000378 6EF4           01487         MOVWF   PRODH
00037A ????           01488         BANKSEL _usbdev
00037C 51??           01489         MOVF    _usbdev, W, B
00037E 0BFC           01490         ANDLW   0xfc
000380 10F4           01491         IORWF   PRODH, W
000382 ????           01492         BANKSEL _usbdev
000384 6F??           01493         MOVWF   _usbdev, B
000386 EF?? F0??      01494         GOTO    _00232_DS_
00038A                01495 _00174_DS_:
gpasm-1.4.0 #1107 (Feb 13 2015) ../include/us   4-21-2015  23:49:51         PAGE 32


LOC    OBJECT CODE    LINE  SOURCE TEXT
  VALUE

00038A ????           01496         BANKSEL _usbdev
                      01497         .line   213; ../include/usb/usb_ep0.c   usbdev.status |= USB_DEVICE_REMOTE_WAKEUP;
00038C 51??           01498         MOVF    _usbdev, W, B
00038E 0B03           01499         ANDLW   0x03
Message[1301]: Using default destination of 0 (Access Bank).
000390 6E??           01500         MOVWF   r0x06
000392 82??           01501         BSF     r0x06, 1
000394 50??           01502         MOVF    r0x06, W
000396 0B03           01503         ANDLW   0x03
Message[1301]: Using default destination of 0 (Access Bank).
000398 6EF4           01504         MOVWF   PRODH
00039A ????           01505         BANKSEL _usbdev
00039C 51??           01506         MOVF    _usbdev, W, B
00039E 0BFC           01507         ANDLW   0xfc
0003A0 10F4           01508         IORWF   PRODH, W
0003A2 ????           01509         BANKSEL _usbdev
0003A4 6F??           01510         MOVWF   _usbdev, B
                      01511         .line   214; ../include/usb/usb_ep0.c   break;
0003A6 EF?? F0??      01512         GOTO    _00232_DS_
0003AA                01513 _00178_DS_:
                      01514         .line   221; ../include/usb/usb_ep0.c   n = USB_buffer->wIndexLow&0x0F;
0003AA 50??           01515         MOVF    r0x00, W
0003AC 0F04           01516         ADDLW   0x04
Message[1301]: Using default destination of 0 (Access Bank).
0003AE 6E??           01517         MOVWF   r0x06
0003B0 0E00           01518         MOVLW   0x00
0003B2 20??           01519         ADDWFC  r0x01, W
Message[1301]: Using default destination of 0 (Access Bank).
0003B4 6E??           01520         MOVWF   r0x07
0003B6 C??? F???      01521         MOVFF   r0x06, FSR0L
0003BA C??? F???      01522         MOVFF   r0x07, FSR0H
0003BE CFEF F000      01523         MOVFF   INDF0, r0x06
0003C2 0E0F           01524         MOVLW   0x0f
0003C4 14??           01525         ANDWF   r0x06, W
Message[1301]: Using default destination of 0 (Access Bank).
0003C6 6E??           01526         MOVWF   r0x03
0003C8 ????           01527         BANKSEL _usbdev
                      01528         .line   222; ../include/usb/usb_ep0.c   switch (usbdev.state) {
0003CA 51??           01529         MOVF    _usbdev, W, B
0003CC 40E8           01530         RRNCF   WREG, W
0003CE 40E8           01531         RRNCF   WREG, W
0003D0 0B07           01532         ANDLW   0x07
Message[1301]: Using default destination of 0 (Access Bank).
0003D2 6E??           01533         MOVWF   r0x07
0003D4 50??           01534         MOVF    r0x07, W
0003D6 0A05           01535         XORLW   0x05
0003D8 E0??           01536         BZ      _00179_DS_
0003DA 50??           01537         MOVF    r0x07, W
0003DC 0A07           01538         XORLW   0x07
0003DE E0??           01539         BZ      _00182_DS_
0003E0 EF?? F0??      01540         GOTO    _00242_DS_
0003E4                01541 _00179_DS_:
                      01542         .line   225; ../include/usb/usb_ep0.c   if ( n ) {
gpasm-1.4.0 #1107 (Feb 13 2015) ../include/us   4-21-2015  23:49:51         PAGE 33


LOC    OBJECT CODE    LINE  SOURCE TEXT
  VALUE

0003E4 50??           01543         MOVF    r0x03, W
0003E6 B4D8           01544         BTFSC   STATUS, 2
0003E8 D???           01545         BRA     _00232_DS_
                      01546         .line   226; ../include/usb/usb_ep0.c   goto USB_REQUEST_ERROR;
0003EA EF?? F0??      01547         GOTO    _00242_DS_
0003EE                01548 _00182_DS_:
                      01549         .line   230; ../include/usb/usb_ep0.c   buf_desc_ptr =  (USB_buffer->wIndexLow&0x80) ? USB_BD_IN
                            _EP(n) : USB_BD_OUT_EP(n); // compute pointer to the buffer descriptor for the specified EP
0003EE 0E80           01550         MOVLW   0x80
0003F0 16??           01551         ANDWF   r0x06, F
0003F2 50??           01552         MOVF    r0x06, W
0003F4 E0??           01553         BZ      _00249_DS_
0003F6 44??           01554         RLNCF   r0x03, W
0003F8 0BFE           01555         ANDLW   0xfe
Message[1301]: Using default destination of 0 (Access Bank).
0003FA 6E??           01556         MOVWF   r0x07
0003FC 2A??           01557         INCF    r0x07, F
                      01558 ; ;multiply lit val:0x04 by variable r0x07 and store in r0x07
0003FE 50??           01559         MOVF    r0x07, W
000400 0D04           01560         MULLW   0x04
000402 50F4           01561         MOVF    PRODH, W
Message[1301]: Using default destination of 0 (Access Bank).
000404 6E??           01562         MOVWF   r0x08
000406 CFF3 F000      01563         MOVFF   PRODL, r0x07
00040A 0E??           01564         MOVLW   LOW(_usb_bd)
00040C 26??           01565         ADDWF   r0x07, F
00040E 0E??           01566         MOVLW   HIGH(_usb_bd)
000410 22??           01567         ADDWFC  r0x08, F
000412 D???           01568         BRA     _00250_DS_
000414                01569 _00249_DS_:
000414 44??           01570         RLNCF   r0x03, W
000416 0BFE           01571         ANDLW   0xfe
Message[1301]: Using default destination of 0 (Access Bank).
000418 6E??           01572         MOVWF   r0x09
                      01573 ; ;multiply lit val:0x04 by variable r0x09 and store in r0x09
00041A 50??           01574         MOVF    r0x09, W
00041C 0D04           01575         MULLW   0x04
00041E 50F4           01576         MOVF    PRODH, W
Message[1301]: Using default destination of 0 (Access Bank).
000420 6E??           01577         MOVWF   r0x0a
000422 CFF3 F000      01578         MOVFF   PRODL, r0x09
000426 0E??           01579         MOVLW   LOW(_usb_bd)
000428 24??           01580         ADDWF   r0x09, W
Message[1301]: Using default destination of 0 (Access Bank).
00042A 6E??           01581         MOVWF   r0x07
00042C 0E??           01582         MOVLW   HIGH(_usb_bd)
00042E 20??           01583         ADDWFC  r0x0a, W
Message[1301]: Using default destination of 0 (Access Bank).
000430 6E??           01584         MOVWF   r0x08
000432                01585 _00250_DS_:
000432 C??? F???      01586         MOVFF   r0x07, r0x04
000436 C??? F???      01587         MOVFF   r0x08, r0x05
                      01588         .line   232; ../include/usb/usb_ep0.c   if (USB_buffer->wIndexLow&0x80) {// if the specified EP 
gpasm-1.4.0 #1107 (Feb 13 2015) ../include/us   4-21-2015  23:49:51         PAGE 34


LOC    OBJECT CODE    LINE  SOURCE TEXT
  VALUE

                            direction is IN...
00043A 50??           01589         MOVF    r0x06, W
00043C E0??           01590         BZ      _00188_DS_
                      01591         .line   234; ../include/usb/usb_ep0.c   if ( !(UEP[n]&0x02) ) {
00043E 0E??           01592         MOVLW   LOW(_UEP0)
000440 24??           01593         ADDWF   r0x03, W
Message[1301]: Using default destination of 0 (Access Bank).
000442 6E??           01594         MOVWF   r0x06
Message[1301]: Using default destination of 0 (Access Bank).
000444 6A??           01595         CLRF    r0x07
000446 0E??           01596         MOVLW   HIGH(_UEP0)
000448 22??           01597         ADDWFC  r0x07, F
00044A C??? F???      01598         MOVFF   r0x06, FSR0L
00044E C??? F???      01599         MOVFF   r0x07, FSR0H
000452 CFEF F000      01600         MOVFF   INDF0, r0x06
000456 A2??           01601         BTFSS   r0x06, 1
000458 EF?? F0??      01602         GOTO    _00242_DS_
                      01603         .line   237; ../include/usb/usb_ep0.c   buf_desc_ptr->stat = (USB_buffer->bRequest == USB_REQ_CL
                            EAR_FEATURE) ? 0x00:0x84; 
00045C 50??           01604         MOVF    r0x02, W
00045E 0A01           01605         XORLW   0x01
000460 E1??           01606         BNZ     _00251_DS_
Message[1301]: Using default destination of 0 (Access Bank).
000462 6A??           01607         CLRF    r0x06
000464 D???           01608         BRA     _00252_DS_
000466                01609 _00251_DS_:
000466 0E84           01610         MOVLW   0x84
Message[1301]: Using default destination of 0 (Access Bank).
000468 6E??           01611         MOVWF   r0x06
00046A                01612 _00252_DS_:
00046A C??? F???      01613         MOVFF   r0x04, FSR0L
00046E C??? F???      01614         MOVFF   r0x05, FSR0H
000472 C??? F???      01615         MOVFF   r0x06, INDF0
000476 D???           01616         BRA     _00232_DS_
000478                01617 _00188_DS_:
                      01618         .line   241; ../include/usb/usb_ep0.c   if ( !(UEP[n]&0x04) ) {
Message[1301]: Using default destination of 0 (Access Bank).
000478 6A??           01619         CLRF    r0x06
00047A 0E??           01620         MOVLW   LOW(_UEP0)
00047C 26??           01621         ADDWF   r0x03, F
00047E 0E??           01622         MOVLW   HIGH(_UEP0)
000480 22??           01623         ADDWFC  r0x06, F
000482 C??? F???      01624         MOVFF   r0x03, FSR0L
000486 C??? F???      01625         MOVFF   r0x06, FSR0H
00048A CFEF F000      01626         MOVFF   INDF0, r0x03
00048E A4??           01627         BTFSS   r0x03, 2
000490 EF?? F0??      01628         GOTO    _00242_DS_
                      01629         .line   244; ../include/usb/usb_ep0.c   buf_desc_ptr->stat = (USB_buffer->bRequest == USB_REQ_CL
                            EAR_FEATURE) ? 0x88:0x84;
000494 50??           01630         MOVF    r0x02, W
000496 0A01           01631         XORLW   0x01
000498 E1??           01632         BNZ     _00253_DS_
00049A 0E88           01633         MOVLW   0x88
gpasm-1.4.0 #1107 (Feb 13 2015) ../include/us   4-21-2015  23:49:51         PAGE 35


LOC    OBJECT CODE    LINE  SOURCE TEXT
  VALUE

Message[1301]: Using default destination of 0 (Access Bank).
00049C 6E??           01634         MOVWF   r0x02
00049E D???           01635         BRA     _00254_DS_
0004A0                01636 _00253_DS_:
0004A0 0E84           01637         MOVLW   0x84
Message[1301]: Using default destination of 0 (Access Bank).
0004A2 6E??           01638         MOVWF   r0x02
0004A4                01639 _00254_DS_:
0004A4 C??? F???      01640         MOVFF   r0x04, FSR0L
0004A8 C??? F???      01641         MOVFF   r0x05, FSR0H
0004AC C??? F???      01642         MOVFF   r0x02, INDF0
                      01643         .line   246; ../include/usb/usb_ep0.c   break;
0004B0 D???           01644         BRA     _00232_DS_
0004B2                01645 _00194_DS_:
                      01646         .line   257; ../include/usb/usb_ep0.c   USB_EP0_to_send.len = USB_buffer->wValueLow;
0004B2 50??           01647         MOVF    r0x00, W
0004B4 0F02           01648         ADDLW   0x02
Message[1301]: Using default destination of 0 (Access Bank).
0004B6 6E??           01649         MOVWF   r0x02
0004B8 0E00           01650         MOVLW   0x00
0004BA 20??           01651         ADDWFC  r0x01, W
Message[1301]: Using default destination of 0 (Access Bank).
0004BC 6E??           01652         MOVWF   r0x03
0004BE C??? F???      01653         MOVFF   r0x02, FSR0L
0004C2 C??? F???      01654         MOVFF   r0x03, FSR0H
0004C6 CFEF F000      01655         MOVFF   INDF0, r0x02
0004CA 50??           01656         MOVF    r0x02, W
0004CC ????           01657         BANKSEL _USB_EP0_to_send
0004CE 6F??           01658         MOVWF   _USB_EP0_to_send, B
                      01659         .line   259; ../include/usb/usb_ep0.c   if (USB_EP0_to_send.len > 0x7F)
0004D0 0E80           01660         MOVLW   0x80
0004D2 5C??           01661         SUBWF   r0x02, W
0004D4 B0D8           01662         BTFSC   STATUS, 0
0004D6 D???           01663         BRA     _00242_DS_
0004D8 ????           01664         BANKSEL _usbdev
                      01665         .line   262; ../include/usb/usb_ep0.c   usbdev.state = ADDRESS_PENDING_STATE;
0004DA 51??           01666         MOVF    _usbdev, W, B
0004DC 0BE3           01667         ANDLW   0xe3
0004DE 0910           01668         IORLW   0x10
0004E0 ????           01669         BANKSEL _usbdev
0004E2 6F??           01670         MOVWF   _usbdev, B
                      01671         .line   263; ../include/usb/usb_ep0.c   break;
0004E4 D???           01672         BRA     _00232_DS_
0004E6                01673 _00197_DS_:
                      01674         .line   265; ../include/usb/usb_ep0.c   switch ( USB_buffer->wValueHigh ) {
0004E6 50??           01675         MOVF    r0x00, W
0004E8 0F03           01676         ADDLW   0x03
Message[1301]: Using default destination of 0 (Access Bank).
0004EA 6E??           01677         MOVWF   r0x02
0004EC 0E00           01678         MOVLW   0x00
0004EE 20??           01679         ADDWFC  r0x01, W
Message[1301]: Using default destination of 0 (Access Bank).
0004F0 6E??           01680         MOVWF   r0x03
gpasm-1.4.0 #1107 (Feb 13 2015) ../include/us   4-21-2015  23:49:51         PAGE 36


LOC    OBJECT CODE    LINE  SOURCE TEXT
  VALUE

0004F2 C??? F???      01681         MOVFF   r0x02, FSR0L
0004F6 C??? F???      01682         MOVFF   r0x03, FSR0H
0004FA CFEF F000      01683         MOVFF   INDF0, r0x02
0004FE 0E01           01684         MOVLW   0x01
000500 5C??           01685         SUBWF   r0x02, W
000502 A0D8           01686         BTFSS   STATUS, 0
000504 D???           01687         BRA     _00242_DS_
000506 0E04           01688         MOVLW   0x04
000508 5C??           01689         SUBWF   r0x02, W
00050A B0D8           01690         BTFSC   STATUS, 0
00050C D???           01691         BRA     _00242_DS_
00050E 06??           01692         DECF    r0x02, F
Message[1301]: Using default destination of 0 (Access Bank).
000510 6AFA           01693         CLRF    PCLATH
Message[1301]: Using default destination of 0 (Access Bank).
000512 6AFB           01694         CLRF    PCLATU
000514 34??           01695         RLCF    r0x02, W
000516 36FA           01696         RLCF    PCLATH, F
000518 34E8           01697         RLCF    WREG, W
00051A 36FA           01698         RLCF    PCLATH, F
00051C 0BFC           01699         ANDLW   0xfc
00051E 0F??           01700         ADDLW   LOW(_00417_DS_)
Message[1301]: Using default destination of 0 (Access Bank).
000520 6EE5           01701         MOVWF   POSTDEC1
000522 0E??           01702         MOVLW   HIGH(_00417_DS_)
000524 22FA           01703         ADDWFC  PCLATH, F
000526 0E??           01704         MOVLW   UPPER(_00417_DS_)
000528 22FB           01705         ADDWFC  PCLATU, F
00052A 50E4           01706         MOVF    PREINC1, W
Message[1301]: Using default destination of 0 (Access Bank).
00052C 6EF9           01707         MOVWF   PCL
00052E                01708 _00417_DS_:
00052E EF?? F0??      01709         GOTO    _00198_DS_
000532 EF?? F0??      01710         GOTO    _00200_DS_
000536 EF?? F0??      01711         GOTO    _00202_DS_
00053A                01712 _00198_DS_:
                      01713         .line   270; ../include/usb/usb_ep0.c   USB_EP0_to_send.buff = (unsigned char *)&device_descript
                            or;
00053A 0E??           01714         MOVLW   UPPER(_device_descriptor)
Message[1301]: Using default destination of 0 (Access Bank).
00053C 6E??           01715         MOVWF   r0x04
00053E 0E??           01716         MOVLW   HIGH(_device_descriptor)
Message[1301]: Using default destination of 0 (Access Bank).
000540 6E??           01717         MOVWF   r0x03
000542 0E??           01718         MOVLW   LOW(_device_descriptor)
Message[1301]: Using default destination of 0 (Access Bank).
000544 6E??           01719         MOVWF   r0x02
000546 50??           01720         MOVF    r0x02, W
000548 ????           01721         BANKSEL (_USB_EP0_to_send + 1)
00054A 6F??           01722         MOVWF   (_USB_EP0_to_send + 1), B
00054C 50??           01723         MOVF    r0x03, W
00054E ????           01724         BANKSEL (_USB_EP0_to_send + 2)
000550 6F??           01725         MOVWF   (_USB_EP0_to_send + 2), B
gpasm-1.4.0 #1107 (Feb 13 2015) ../include/us   4-21-2015  23:49:51         PAGE 37


LOC    OBJECT CODE    LINE  SOURCE TEXT
  VALUE

000552 50??           01726         MOVF    r0x04, W
000554 ????           01727         BANKSEL (_USB_EP0_to_send + 3)
000556 6F??           01728         MOVWF   (_USB_EP0_to_send + 3), B
                      01729         .line   271; ../include/usb/usb_ep0.c   USB_EP0_to_send.len = sizeof(device_descriptor);
000558 0E12           01730         MOVLW   0x12
00055A ????           01731         BANKSEL _USB_EP0_to_send
00055C 6F??           01732         MOVWF   _USB_EP0_to_send, B
                      01733         .line   272; ../include/usb/usb_ep0.c   break;
00055E D???           01734         BRA     _00232_DS_
000560                01735 _00200_DS_:
                      01736         .line   277; ../include/usb/usb_ep0.c   USB_EP0_to_send.buff = (unsigned char *)&configuration0_
                            descriptor;
000560 0E??           01737         MOVLW   UPPER(_configuration0_descriptor)
Message[1301]: Using default destination of 0 (Access Bank).
000562 6E??           01738         MOVWF   r0x04
000564 0E??           01739         MOVLW   HIGH(_configuration0_descriptor)
Message[1301]: Using default destination of 0 (Access Bank).
000566 6E??           01740         MOVWF   r0x03
000568 0E??           01741         MOVLW   LOW(_configuration0_descriptor)
Message[1301]: Using default destination of 0 (Access Bank).
00056A 6E??           01742         MOVWF   r0x02
00056C 50??           01743         MOVF    r0x02, W
00056E ????           01744         BANKSEL (_USB_EP0_to_send + 1)
000570 6F??           01745         MOVWF   (_USB_EP0_to_send + 1), B
000572 50??           01746         MOVF    r0x03, W
000574 ????           01747         BANKSEL (_USB_EP0_to_send + 2)
000576 6F??           01748         MOVWF   (_USB_EP0_to_send + 2), B
000578 50??           01749         MOVF    r0x04, W
00057A ????           01750         BANKSEL (_USB_EP0_to_send + 3)
00057C 6F??           01751         MOVWF   (_USB_EP0_to_send + 3), B
                      01752         .line   278; ../include/usb/usb_ep0.c   USB_EP0_to_send.len = sizeof(configuration0_descriptor);
00057E 0E20           01753         MOVLW   0x20
000580 ????           01754         BANKSEL _USB_EP0_to_send
000582 6F??           01755         MOVWF   _USB_EP0_to_send, B
                      01756         .line   279; ../include/usb/usb_ep0.c   break;
000584 D???           01757         BRA     _00232_DS_
000586                01758 _00202_DS_:
                      01759         .line   281; ../include/usb/usb_ep0.c   switch (USB_buffer->wValueLow) {
000586 50??           01760         MOVF    r0x00, W
000588 0F02           01761         ADDLW   0x02
Message[1301]: Using default destination of 0 (Access Bank).
00058A 6E??           01762         MOVWF   r0x02
00058C 0E00           01763         MOVLW   0x00
00058E 20??           01764         ADDWFC  r0x01, W
Message[1301]: Using default destination of 0 (Access Bank).
000590 6E??           01765         MOVWF   r0x03
000592 C??? F???      01766         MOVFF   r0x02, FSR0L
000596 C??? F???      01767         MOVFF   r0x03, FSR0H
00059A CFEF F000      01768         MOVFF   INDF0, r0x02
00059E 0E04           01769         MOVLW   0x04
0005A0 5C??           01770         SUBWF   r0x02, W
0005A2 B0D8           01771         BTFSC   STATUS, 0
0005A4 D???           01772         BRA     _00242_DS_
gpasm-1.4.0 #1107 (Feb 13 2015) ../include/us   4-21-2015  23:49:51         PAGE 38


LOC    OBJECT CODE    LINE  SOURCE TEXT
  VALUE

Message[1301]: Using default destination of 0 (Access Bank).
0005A6 6AFA           01773         CLRF    PCLATH
Message[1301]: Using default destination of 0 (Access Bank).
0005A8 6AFB           01774         CLRF    PCLATU
0005AA 34??           01775         RLCF    r0x02, W
0005AC 36FA           01776         RLCF    PCLATH, F
0005AE 34E8           01777         RLCF    WREG, W
0005B0 36FA           01778         RLCF    PCLATH, F
0005B2 0BFC           01779         ANDLW   0xfc
0005B4 0F??           01780         ADDLW   LOW(_00419_DS_)
Message[1301]: Using default destination of 0 (Access Bank).
0005B6 6EE5           01781         MOVWF   POSTDEC1
0005B8 0E??           01782         MOVLW   HIGH(_00419_DS_)
0005BA 22FA           01783         ADDWFC  PCLATH, F
0005BC 0E??           01784         MOVLW   UPPER(_00419_DS_)
0005BE 22FB           01785         ADDWFC  PCLATU, F
0005C0 50E4           01786         MOVF    PREINC1, W
Message[1301]: Using default destination of 0 (Access Bank).
0005C2 6EF9           01787         MOVWF   PCL
0005C4                01788 _00419_DS_:
0005C4 EF?? F0??      01789         GOTO    _00203_DS_
0005C8 EF?? F0??      01790         GOTO    _00204_DS_
0005CC EF?? F0??      01791         GOTO    _00205_DS_
0005D0 EF?? F0??      01792         GOTO    _00206_DS_
0005D4                01793 _00203_DS_:
                      01794         .line   283; ../include/usb/usb_ep0.c   USB_EP0_to_send.buff = (unsigned char *)string0_descript
                            or;
0005D4 0E??           01795         MOVLW   UPPER(_string0_descriptor)
Message[1301]: Using default destination of 0 (Access Bank).
0005D6 6E??           01796         MOVWF   r0x04
0005D8 0E??           01797         MOVLW   HIGH(_string0_descriptor)
Message[1301]: Using default destination of 0 (Access Bank).
0005DA 6E??           01798         MOVWF   r0x03
0005DC 0E??           01799         MOVLW   LOW(_string0_descriptor)
Message[1301]: Using default destination of 0 (Access Bank).
0005DE 6E??           01800         MOVWF   r0x02
0005E0 50??           01801         MOVF    r0x02, W
0005E2 ????           01802         BANKSEL (_USB_EP0_to_send + 1)
0005E4 6F??           01803         MOVWF   (_USB_EP0_to_send + 1), B
0005E6 50??           01804         MOVF    r0x03, W
0005E8 ????           01805         BANKSEL (_USB_EP0_to_send + 2)
0005EA 6F??           01806         MOVWF   (_USB_EP0_to_send + 2), B
0005EC 50??           01807         MOVF    r0x04, W
0005EE ????           01808         BANKSEL (_USB_EP0_to_send + 3)
0005F0 6F??           01809         MOVWF   (_USB_EP0_to_send + 3), B
                      01810         .line   284; ../include/usb/usb_ep0.c   USB_EP0_to_send.len = sizeof(string0_descriptor);
0005F2 0E04           01811         MOVLW   0x04
0005F4 ????           01812         BANKSEL _USB_EP0_to_send
0005F6 6F??           01813         MOVWF   _USB_EP0_to_send, B
                      01814         .line   285; ../include/usb/usb_ep0.c   break;
0005F8 D???           01815         BRA     _00232_DS_
0005FA                01816 _00204_DS_:
                      01817         .line   287; ../include/usb/usb_ep0.c   USB_EP0_to_send.buff = (unsigned char *)string1_descript
gpasm-1.4.0 #1107 (Feb 13 2015) ../include/us   4-21-2015  23:49:51         PAGE 39


LOC    OBJECT CODE    LINE  SOURCE TEXT
  VALUE

                            or;
0005FA 0E??           01818         MOVLW   UPPER(_string1_descriptor)
Message[1301]: Using default destination of 0 (Access Bank).
0005FC 6E??           01819         MOVWF   r0x04
0005FE 0E??           01820         MOVLW   HIGH(_string1_descriptor)
Message[1301]: Using default destination of 0 (Access Bank).
000600 6E??           01821         MOVWF   r0x03
000602 0E??           01822         MOVLW   LOW(_string1_descriptor)
Message[1301]: Using default destination of 0 (Access Bank).
000604 6E??           01823         MOVWF   r0x02
000606 50??           01824         MOVF    r0x02, W
000608 ????           01825         BANKSEL (_USB_EP0_to_send + 1)
00060A 6F??           01826         MOVWF   (_USB_EP0_to_send + 1), B
00060C 50??           01827         MOVF    r0x03, W
00060E ????           01828         BANKSEL (_USB_EP0_to_send + 2)
000610 6F??           01829         MOVWF   (_USB_EP0_to_send + 2), B
000612 50??           01830         MOVF    r0x04, W
000614 ????           01831         BANKSEL (_USB_EP0_to_send + 3)
000616 6F??           01832         MOVWF   (_USB_EP0_to_send + 3), B
                      01833         .line   288; ../include/usb/usb_ep0.c   USB_EP0_to_send.len = sizeof(string1_descriptor);
000618 0E14           01834         MOVLW   0x14
00061A ????           01835         BANKSEL _USB_EP0_to_send
00061C 6F??           01836         MOVWF   _USB_EP0_to_send, B
                      01837         .line   289; ../include/usb/usb_ep0.c   break;
00061E D???           01838         BRA     _00232_DS_
000620                01839 _00205_DS_:
                      01840         .line   291; ../include/usb/usb_ep0.c   USB_EP0_to_send.buff = (unsigned char *)string2_descript
                            or;
000620 0E??           01841         MOVLW   UPPER(_string2_descriptor)
Message[1301]: Using default destination of 0 (Access Bank).
000622 6E??           01842         MOVWF   r0x04
000624 0E??           01843         MOVLW   HIGH(_string2_descriptor)
Message[1301]: Using default destination of 0 (Access Bank).
000626 6E??           01844         MOVWF   r0x03
000628 0E??           01845         MOVLW   LOW(_string2_descriptor)
Message[1301]: Using default destination of 0 (Access Bank).
00062A 6E??           01846         MOVWF   r0x02
00062C 50??           01847         MOVF    r0x02, W
00062E ????           01848         BANKSEL (_USB_EP0_to_send + 1)
000630 6F??           01849         MOVWF   (_USB_EP0_to_send + 1), B
000632 50??           01850         MOVF    r0x03, W
000634 ????           01851         BANKSEL (_USB_EP0_to_send + 2)
000636 6F??           01852         MOVWF   (_USB_EP0_to_send + 2), B
000638 50??           01853         MOVF    r0x04, W
00063A ????           01854         BANKSEL (_USB_EP0_to_send + 3)
00063C 6F??           01855         MOVWF   (_USB_EP0_to_send + 3), B
                      01856         .line   292; ../include/usb/usb_ep0.c   USB_EP0_to_send.len = sizeof(string2_descriptor);
00063E 0E10           01857         MOVLW   0x10
000640 ????           01858         BANKSEL _USB_EP0_to_send
000642 6F??           01859         MOVWF   _USB_EP0_to_send, B
                      01860         .line   293; ../include/usb/usb_ep0.c   break;
000644 D???           01861         BRA     _00232_DS_
000646                01862 _00206_DS_:
gpasm-1.4.0 #1107 (Feb 13 2015) ../include/us   4-21-2015  23:49:51         PAGE 40


LOC    OBJECT CODE    LINE  SOURCE TEXT
  VALUE

                      01863         .line   295; ../include/usb/usb_ep0.c   USB_EP0_to_send.buff = (unsigned char *)string3_descript
                            or;
000646 0E??           01864         MOVLW   UPPER(_string3_descriptor)
Message[1301]: Using default destination of 0 (Access Bank).
000648 6E??           01865         MOVWF   r0x04
00064A 0E??           01866         MOVLW   HIGH(_string3_descriptor)
Message[1301]: Using default destination of 0 (Access Bank).
00064C 6E??           01867         MOVWF   r0x03
00064E 0E??           01868         MOVLW   LOW(_string3_descriptor)
Message[1301]: Using default destination of 0 (Access Bank).
000650 6E??           01869         MOVWF   r0x02
000652 50??           01870         MOVF    r0x02, W
000654 ????           01871         BANKSEL (_USB_EP0_to_send + 1)
000656 6F??           01872         MOVWF   (_USB_EP0_to_send + 1), B
000658 50??           01873         MOVF    r0x03, W
00065A ????           01874         BANKSEL (_USB_EP0_to_send + 2)
00065C 6F??           01875         MOVWF   (_USB_EP0_to_send + 2), B
00065E 50??           01876         MOVF    r0x04, W
000660 ????           01877         BANKSEL (_USB_EP0_to_send + 3)
000662 6F??           01878         MOVWF   (_USB_EP0_to_send + 3), B
                      01879         .line   296; ../include/usb/usb_ep0.c   USB_EP0_to_send.len = sizeof(string3_descriptor);
000664 0E08           01880         MOVLW   0x08
000666 ????           01881         BANKSEL _USB_EP0_to_send
000668 6F??           01882         MOVWF   _USB_EP0_to_send, B
                      01883         .line   305; ../include/usb/usb_ep0.c   break;
00066A D???           01884         BRA     _00232_DS_
00066C                01885 _00211_DS_:
                      01886         .line   307; ../include/usb/usb_ep0.c   USB_EP0_to_send.buff = (unsigned char *)&configuration0_
                            descriptor;
00066C 0E??           01887         MOVLW   UPPER(_configuration0_descriptor)
Message[1301]: Using default destination of 0 (Access Bank).
00066E 6E??           01888         MOVWF   r0x04
000670 0E??           01889         MOVLW   HIGH(_configuration0_descriptor)
Message[1301]: Using default destination of 0 (Access Bank).
000672 6E??           01890         MOVWF   r0x03
000674 0E??           01891         MOVLW   LOW(_configuration0_descriptor)
Message[1301]: Using default destination of 0 (Access Bank).
000676 6E??           01892         MOVWF   r0x02
000678 50??           01893         MOVF    r0x02, W
00067A ????           01894         BANKSEL (_USB_EP0_to_send + 1)
00067C 6F??           01895         MOVWF   (_USB_EP0_to_send + 1), B
00067E 50??           01896         MOVF    r0x03, W
000680 ????           01897         BANKSEL (_USB_EP0_to_send + 2)
000682 6F??           01898         MOVWF   (_USB_EP0_to_send + 2), B
000684 50??           01899         MOVF    r0x04, W
000686 ????           01900         BANKSEL (_USB_EP0_to_send + 3)
000688 6F??           01901         MOVWF   (_USB_EP0_to_send + 3), B
                      01902         .line   308; ../include/usb/usb_ep0.c   USB_EP0_to_send.len = sizeof(configuration0_descriptor);
00068A 0E20           01903         MOVLW   0x20
00068C ????           01904         BANKSEL _USB_EP0_to_send
00068E 6F??           01905         MOVWF   _USB_EP0_to_send, B
                      01906         .line   309; ../include/usb/usb_ep0.c   break;
000690 D???           01907         BRA     _00232_DS_
gpasm-1.4.0 #1107 (Feb 13 2015) ../include/us   4-21-2015  23:49:51         PAGE 41


LOC    OBJECT CODE    LINE  SOURCE TEXT
  VALUE

000692                01908 _00212_DS_:
                      01909         .line   311; ../include/usb/usb_ep0.c   switch (USB_buffer->wValueLow) {
000692 50??           01910         MOVF    r0x00, W
000694 0F02           01911         ADDLW   0x02
Message[1301]: Using default destination of 0 (Access Bank).
000696 6E??           01912         MOVWF   r0x02
000698 0E00           01913         MOVLW   0x00
00069A 20??           01914         ADDWFC  r0x01, W
Message[1301]: Using default destination of 0 (Access Bank).
00069C 6E??           01915         MOVWF   r0x03
00069E C??? F???      01916         MOVFF   r0x02, FSR0L
0006A2 C??? F???      01917         MOVFF   r0x03, FSR0H
0006A6 CFEF F000      01918         MOVFF   INDF0, r0x02
0006AA 50??           01919         MOVF    r0x02, W
0006AC E0??           01920         BZ      _00213_DS_
0006AE 50??           01921         MOVF    r0x02, W
0006B0 0A01           01922         XORLW   0x01
0006B2 E0??           01923         BZ      _00214_DS_
0006B4 D???           01924         BRA     _00242_DS_
0006B6                01925 _00213_DS_:
0006B6 ????           01926         BANKSEL _usbdev
                      01927         .line   313; ../include/usb/usb_ep0.c   usbdev.state = ADDRESS_STATE;
0006B8 51??           01928         MOVF    _usbdev, W, B
0006BA 0BE3           01929         ANDLW   0xe3
0006BC 0914           01930         IORLW   0x14
0006BE ????           01931         BANKSEL _usbdev
0006C0 6F??           01932         MOVWF   _usbdev, B
                      01933         .line   314; ../include/usb/usb_ep0.c   break;
0006C2 D???           01934         BRA     _00232_DS_
0006C4                01935 _00214_DS_:
                      01936         .line   316; ../include/usb/usb_ep0.c   USB_clear_all_EP_exept_EP0();
0006C4 EC?? F0??      01937         CALL    _USB_clear_all_EP_exept_EP0
                      01938         .line   317; ../include/usb/usb_ep0.c   USB_configuration0_endps_init();
0006C8 EC?? F0??      01939         CALL    _USB_configuration0_endps_init
0006CC ????           01940         BANKSEL _usbdev
                      01941         .line   318; ../include/usb/usb_ep0.c   usbdev.state = CONFIGURED_STATE;
0006CE 51??           01942         MOVF    _usbdev, W, B
0006D0 0BE3           01943         ANDLW   0xe3
0006D2 091C           01944         IORLW   0x1c
0006D4 ????           01945         BANKSEL _usbdev
0006D6 6F??           01946         MOVWF   _usbdev, B
                      01947         .line   319; ../include/usb/usb_ep0.c   usbdev.config = CONFIGURATION0_BCONFIGURATIONVALUE;
0006D8 0E01           01948         MOVLW   0x01
0006DA ????           01949         BANKSEL (_usbdev + 1)
0006DC 6F??           01950         MOVWF   (_usbdev + 1), B
                      01951         .line   320; ../include/usb/usb_ep0.c   break;
0006DE D???           01952         BRA     _00232_DS_
0006E0                01953 _00217_DS_:
0006E0 ????           01954         BANKSEL _usbdev
                      01955         .line   327; ../include/usb/usb_ep0.c   if ( usbdev.state != CONFIGURED_STATE ) {
0006E2 51??           01956         MOVF    _usbdev, W, B
0006E4 40E8           01957         RRNCF   WREG, W
0006E6 40E8           01958         RRNCF   WREG, W
gpasm-1.4.0 #1107 (Feb 13 2015) ../include/us   4-21-2015  23:49:51         PAGE 42


LOC    OBJECT CODE    LINE  SOURCE TEXT
  VALUE

0006E8 0B07           01959         ANDLW   0x07
Message[1301]: Using default destination of 0 (Access Bank).
0006EA 6E??           01960         MOVWF   r0x02
0006EC 50??           01961         MOVF    r0x02, W
0006EE 0A07           01962         XORLW   0x07
0006F0 E0??           01963         BZ      _00425_DS_
0006F2 D???           01964         BRA     _00242_DS_
0006F4                01965 _00425_DS_:
                      01966         .line   330; ../include/usb/usb_ep0.c   switch (USB_buffer->wIndexLow) {
0006F4 50??           01967         MOVF    r0x00, W
0006F6 0F04           01968         ADDLW   0x04
Message[1301]: Using default destination of 0 (Access Bank).
0006F8 6E??           01969         MOVWF   r0x02
0006FA 0E00           01970         MOVLW   0x00
0006FC 20??           01971         ADDWFC  r0x01, W
Message[1301]: Using default destination of 0 (Access Bank).
0006FE 6E??           01972         MOVWF   r0x03
000700 C??? F???      01973         MOVFF   r0x02, FSR0L
000704 C??? F???      01974         MOVFF   r0x03, FSR0H
000708 CFEF F000      01975         MOVFF   INDF0, r0x02
00070C 50??           01976         MOVF    r0x02, W
00070E E0??           01977         BZ      _00427_DS_
000710 D???           01978         BRA     _00242_DS_
000712                01979 _00427_DS_:
                      01980         .line   333; ../include/usb/usb_ep0.c   USB_EP0_to_send.buff[0] = 0x00;
000712 C??? F???      01981         MOVFF   (_USB_EP0_to_send + 1), r0x02
000716 C??? F???      01982         MOVFF   (_USB_EP0_to_send + 2), r0x03
00071A C??? F???      01983         MOVFF   (_USB_EP0_to_send + 3), r0x04
00071E 0E00           01984         MOVLW   0x00
Message[1301]: Using default destination of 0 (Access Bank).
000720 6EE5           01985         MOVWF   POSTDEC1
000722 C??? F???      01986         MOVFF   r0x02, FSR0L
000726 C??? F???      01987         MOVFF   r0x03, PRODL
00072A 50??           01988         MOVF    r0x04, W
00072C EC?? F0??      01989         CALL    __gptrput1
                      01990         .line   338; ../include/usb/usb_ep0.c   USB_EP0_to_send.len = 1;
000730 0E01           01991         MOVLW   0x01
000732 ????           01992         BANKSEL _USB_EP0_to_send
000734 6F??           01993         MOVWF   _USB_EP0_to_send, B
                      01994         .line   339; ../include/usb/usb_ep0.c   break;
000736 D???           01995         BRA     _00232_DS_
000738                01996 _00223_DS_:
000738 ????           01997         BANKSEL _usbdev
                      01998         .line   341; ../include/usb/usb_ep0.c   if ( usbdev.state != CONFIGURED_STATE ) {
00073A 51??           01999         MOVF    _usbdev, W, B
00073C 40E8           02000         RRNCF   WREG, W
00073E 40E8           02001         RRNCF   WREG, W
000740 0B07           02002         ANDLW   0x07
Message[1301]: Using default destination of 0 (Access Bank).
000742 6E??           02003         MOVWF   r0x02
000744 50??           02004         MOVF    r0x02, W
000746 0A07           02005         XORLW   0x07
000748 E0??           02006         BZ      _00429_DS_
gpasm-1.4.0 #1107 (Feb 13 2015) ../include/us   4-21-2015  23:49:51         PAGE 43


LOC    OBJECT CODE    LINE  SOURCE TEXT
  VALUE

00074A D???           02007         BRA     _00242_DS_
00074C                02008 _00429_DS_:
                      02009         .line   344; ../include/usb/usb_ep0.c   switch (USB_buffer->wValueLow) {
00074C 50??           02010         MOVF    r0x00, W
00074E 0F02           02011         ADDLW   0x02
Message[1301]: Using default destination of 0 (Access Bank).
000750 6E??           02012         MOVWF   r0x02
000752 0E00           02013         MOVLW   0x00
000754 20??           02014         ADDWFC  r0x01, W
Message[1301]: Using default destination of 0 (Access Bank).
000756 6E??           02015         MOVWF   r0x03
000758 C??? F???      02016         MOVFF   r0x02, FSR0L
00075C C??? F???      02017         MOVFF   r0x03, FSR0H
000760 CFEF F000      02018         MOVFF   INDF0, r0x02
000764 50??           02019         MOVF    r0x02, W
000766 E0??           02020         BZ      _00431_DS_
000768 D???           02021         BRA     _00242_DS_
00076A                02022 _00431_DS_:
                      02023         .line   346; ../include/usb/usb_ep0.c   break;
00076A D???           02024         BRA     _00232_DS_
00076C                02025 _00231_DS_:
                      02026         .line   356; ../include/usb/usb_ep0.c   goto USB_REQUEST_ERROR;
00076C D???           02027         BRA     _00242_DS_
00076E                02028 _00232_DS_:
                      02029         .line   363; ../include/usb/usb_ep0.c   if (USB_buffer->data_transfer_direction) { // DIRECTION 
                            IN -> DEVICE_TO_HOST
00076E C??? F???      02030         MOVFF   r0x00, r0x02
000772 C??? F???      02031         MOVFF   r0x01, r0x03
Message[1301]: Using default destination of 0 (Access Bank).
000776 6AE8           02032         CLRF    WREG
000778 C??? F???      02033         MOVFF   r0x02, FSR0L
00077C C??? F???      02034         MOVFF   r0x03, FSR0H
000780 BEEF           02035         BTFSC   INDF0, 7
000782 2AE8           02036         INCF    WREG, F
Message[1301]: Using default destination of 0 (Access Bank).
000784 6E??           02037         MOVWF   r0x02
000786 50??           02038         MOVF    r0x02, W
000788 B4D8           02039         BTFSC   STATUS, 2
00078A D???           02040         BRA     _00240_DS_
                      02041         .line   374; ../include/usb/usb_ep0.c   if ( (USB_buffer->wLengthHigh == 0x00) && (USB_buffer->w
                            LengthLow < USB_EP0_to_send.len) ) {
00078C 50??           02042         MOVF    r0x00, W
00078E 0F07           02043         ADDLW   0x07
Message[1301]: Using default destination of 0 (Access Bank).
000790 6E??           02044         MOVWF   r0x02
000792 0E00           02045         MOVLW   0x00
000794 20??           02046         ADDWFC  r0x01, W
Message[1301]: Using default destination of 0 (Access Bank).
000796 6E??           02047         MOVWF   r0x03
000798 C??? F???      02048         MOVFF   r0x02, FSR0L
00079C C??? F???      02049         MOVFF   r0x03, FSR0H
0007A0 CFEF F000      02050         MOVFF   INDF0, r0x02
0007A4 50??           02051         MOVF    r0x02, W
gpasm-1.4.0 #1107 (Feb 13 2015) ../include/us   4-21-2015  23:49:51         PAGE 44


LOC    OBJECT CODE    LINE  SOURCE TEXT
  VALUE

0007A6 E1??           02052         BNZ     _00234_DS_
0007A8 0E06           02053         MOVLW   0x06
0007AA 26??           02054         ADDWF   r0x00, F
0007AC B0D8           02055         BTFSC   STATUS, 0
0007AE 2A??           02056         INCF    r0x01, F
0007B0 C??? F???      02057         MOVFF   r0x00, FSR0L
0007B4 C??? F???      02058         MOVFF   r0x01, FSR0H
0007B8 CFEF F000      02059         MOVFF   INDF0, r0x00
0007BC ????           02060         BANKSEL _USB_EP0_to_send
0007BE 51??           02061         MOVF    _USB_EP0_to_send, W, B
0007C0 5C??           02062         SUBWF   r0x00, W
0007C2 E2??           02063         BC      _00234_DS_
                      02064         .line   375; ../include/usb/usb_ep0.c   USB_EP0_to_send.len = USB_buffer->wLengthLow;
0007C4 50??           02065         MOVF    r0x00, W
0007C6 ????           02066         BANKSEL _USB_EP0_to_send
0007C8 6F??           02067         MOVWF   _USB_EP0_to_send, B
0007CA                02068 _00234_DS_:
                      02069         .line   378; ../include/usb/usb_ep0.c   if ( USB_EP0_to_send.buff == bd_in->adr ) {
0007CA C??? F???      02070         MOVFF   (_usb_bd + 6), r0x00
0007CE C??? F???      02071         MOVFF   (_usb_bd + 7), r0x01
0007D2 50??           02072         MOVF    r0x01, W
Message[1301]: Using default destination of 0 (Access Bank).
0007D4 6E??           02073         MOVWF   r0x03
0007D6 50??           02074         MOVF    r0x00, W
Message[1301]: Using default destination of 0 (Access Bank).
0007D8 6E??           02075         MOVWF   r0x02
0007DA 0E80           02076         MOVLW   0x80
Message[1301]: Using default destination of 0 (Access Bank).
0007DC 6E??           02077         MOVWF   r0x04
0007DE ????           02078         BANKSEL (_USB_EP0_to_send + 1)
0007E0 51??           02079         MOVF    (_USB_EP0_to_send + 1), W, B
0007E2 18??           02080         XORWF   r0x02, W
0007E4 E1??           02081         BNZ     _00433_DS_
0007E6 ????           02082         BANKSEL (_USB_EP0_to_send + 2)
0007E8 51??           02083         MOVF    (_USB_EP0_to_send + 2), W, B
0007EA 18??           02084         XORWF   r0x03, W
0007EC E1??           02085         BNZ     _00433_DS_
0007EE ????           02086         BANKSEL (_USB_EP0_to_send + 3)
0007F0 51??           02087         MOVF    (_USB_EP0_to_send + 3), W, B
0007F2 18??           02088         XORWF   r0x04, W
0007F4 E0??           02089         BZ      _00434_DS_
0007F6                02090 _00433_DS_:
0007F6 D???           02091         BRA     _00237_DS_
0007F8                02092 _00434_DS_:
0007F8 ????           02093         BANKSEL _USB_EP0_to_send
                      02094         .line   380; ../include/usb/usb_ep0.c   bd_in->cnt = USB_EP0_to_send.len;
0007FA 51??           02095         MOVF    _USB_EP0_to_send, W, B
0007FC ????           02096         BANKSEL (_usb_bd + 5)
0007FE 6F??           02097         MOVWF   (_usb_bd + 5), B
000800 D???           02098         BRA     _00241_DS_
000802                02099 _00237_DS_:
                      02100         .line   387; ../include/usb/usb_ep0.c   bd_in->cnt = USB_EP0_fill_adr(bd_in->adr);
000802 50??           02101         MOVF    r0x01, W
gpasm-1.4.0 #1107 (Feb 13 2015) ../include/us   4-21-2015  23:49:51         PAGE 45


LOC    OBJECT CODE    LINE  SOURCE TEXT
  VALUE

Message[1301]: Using default destination of 0 (Access Bank).
000804 6EE5           02102         MOVWF   POSTDEC1
000806 50??           02103         MOVF    r0x00, W
Message[1301]: Using default destination of 0 (Access Bank).
000808 6EE5           02104         MOVWF   POSTDEC1
00080A EC?? F0??      02105         CALL    _USB_EP0_fill_adr
Message[1301]: Using default destination of 0 (Access Bank).
00080E 6E??           02106         MOVWF   r0x00
000810 52E6           02107         MOVF    POSTINC1, F
000812 52E6           02108         MOVF    POSTINC1, F
000814 50??           02109         MOVF    r0x00, W
000816 ????           02110         BANKSEL (_usb_bd + 5)
000818 6F??           02111         MOVWF   (_usb_bd + 5), B
00081A D???           02112         BRA     _00241_DS_
00081C                02113 _00240_DS_:
00081C ????           02114         BANKSEL (_usb_bd + 5)
                      02115         .line   417; ../include/usb/usb_ep0.c   bd_in->cnt = 0;
00081E 6B??           02116         CLRF    (_usb_bd + 5), B
000820                02117 _00241_DS_:
                      02118         .line   427; ../include/usb/usb_ep0.c   bd_in->stat = BD_STAT_USIE | BD_STAT_DATA1 | BD_STAT_DTS
                            EN;
000820 0EC8           02119         MOVLW   0xc8
000822 ????           02120         BANKSEL (_usb_bd + 4)
000824 6F??           02121         MOVWF   (_usb_bd + 4), B
                      02122         .line   431; ../include/usb/usb_ep0.c   bd_out->cnt = EP0_BUFFER_SIZE;
000826 0E40           02123         MOVLW   0x40
000828 ????           02124         BANKSEL (_usb_bd + 1)
00082A 6F??           02125         MOVWF   (_usb_bd + 1), B
                      02126         .line   432; ../include/usb/usb_ep0.c   bd_out->stat = BD_STAT_USIE | BD_STAT_DATA1 | BD_STAT_DT
                            SEN;
00082C 0EC8           02127         MOVLW   0xc8
00082E ????           02128         BANKSEL _usb_bd
000830 6F??           02129         MOVWF   _usb_bd, B
                      02130         .line   434; ../include/usb/usb_ep0.c   return; /* succes */
000832 D???           02131         BRA     _00243_DS_
000834                02132 _00242_DS_:
                      02133         .line   437; ../include/usb/usb_ep0.c   USB_request_error();
000834 EC?? F0??      02134         CALL    _USB_request_error
000838                02135 _00243_DS_:
                      02136         .line   438; ../include/usb/usb_ep0.c   return;
000838 CFE4 F000      02137         MOVFF   PREINC1, r0x0a
00083C CFE4 F000      02138         MOVFF   PREINC1, r0x09
000840 CFE4 F000      02139         MOVFF   PREINC1, r0x08
000844 CFE4 F000      02140         MOVFF   PREINC1, r0x07
000848 CFE4 F000      02141         MOVFF   PREINC1, r0x06
00084C CFE4 F000      02142         MOVFF   PREINC1, r0x05
000850 CFE4 F000      02143         MOVFF   PREINC1, r0x04
000854 CFE4 F000      02144         MOVFF   PREINC1, r0x03
000858 CFE4 F000      02145         MOVFF   PREINC1, r0x02
00085C CFE4 F000      02146         MOVFF   PREINC1, r0x01
000860 CFE4 F000      02147         MOVFF   PREINC1, r0x00
000864 CFE4 FFD9      02148         MOVFF   PREINC1, FSR2L
000868 0012           02149         RETURN  
gpasm-1.4.0 #1107 (Feb 13 2015) ../include/us   4-21-2015  23:49:51         PAGE 46


LOC    OBJECT CODE    LINE  SOURCE TEXT
  VALUE

                      02150 
                      02151 ; ; Starting pCode block
                      02152 S_usb__USB_request_error        code
000000                02153 _USB_request_error:
                      02154         .line   82; ../include/usb/usb_ep0.c    static void USB_request_error(void) 
000000 CFD9 FFE5      02155         MOVFF   FSR2L, POSTDEC1
000004 CFE1 FFD9      02156         MOVFF   FSR1L, FSR2L
                      02157         .line   92; ../include/usb/usb_ep0.c    bd_out->cnt  = EP0_BUFFER_SIZE;
000008 0E40           02158         MOVLW   0x40
00000A ????           02159         BANKSEL (_usb_bd + 1)
00000C 6F??           02160         MOVWF   (_usb_bd + 1), B
                      02161         .line   93; ../include/usb/usb_ep0.c    bd_out->stat = BD_STAT_USIE | BD_STAT_DATA0 | BD_STAT_DT
                            SEN | BD_STAT_BSTALL;
00000E 0E8C           02162         MOVLW   0x8c
000010 ????           02163         BANKSEL _usb_bd
000012 6F??           02164         MOVWF   _usb_bd, B
                      02165         .line   94; ../include/usb/usb_ep0.c    bd_in->stat = BD_STAT_USIE | BD_STAT_BSTALL;
000014 0E84           02166         MOVLW   0x84
000016 ????           02167         BANKSEL (_usb_bd + 4)
000018 6F??           02168         MOVWF   (_usb_bd + 4), B
00001A CFE4 FFD9      02169         MOVFF   PREINC1, FSR2L
00001E 0012           02170         RETURN  
                      02171 
                      02172 ; ; Starting pCode block
                      02173 S_usb__USB_EP0_fill_adr code
000000                02174 _USB_EP0_fill_adr:
                      02175         .line   51; ../include/usb/usb_ep0.c    static unsigned char USB_EP0_fill_adr(unsigned char __ne
                            ar *adr) 
000000 CFD9 FFE5      02176         MOVFF   FSR2L, POSTDEC1
000004 CFE1 FFD9      02177         MOVFF   FSR1L, FSR2L
000008 C??? F???      02178         MOVFF   r0x00, POSTDEC1
00000C C??? F???      02179         MOVFF   r0x01, POSTDEC1
000010 C??? F???      02180         MOVFF   r0x02, POSTDEC1
000014 C??? F???      02181         MOVFF   r0x03, POSTDEC1
000018 C??? F???      02182         MOVFF   r0x04, POSTDEC1
00001C C??? F???      02183         MOVFF   r0x05, POSTDEC1
000020 C??? F???      02184         MOVFF   r0x06, POSTDEC1
000024 0E02           02185         MOVLW   0x02
000026 CFDB F000      02186         MOVFF   PLUSW2, r0x00
00002A 0E03           02187         MOVLW   0x03
00002C CFDB F000      02188         MOVFF   PLUSW2, r0x01
                      02189         .line   56; ../include/usb/usb_ep0.c    if ( USB_EP0_to_send.len < EP0_BUFFER_SIZE ) {
000030 C??? F???      02190         MOVFF   _USB_EP0_to_send, r0x02
000034 0E40           02191         MOVLW   0x40
000036 5C??           02192         SUBWF   r0x02, W
000038 E2??           02193         BC      _00119_DS_
                      02194         .line   57; ../include/usb/usb_ep0.c    i = USB_packet_length = USB_EP0_to_send.len;
00003A C??? F???      02195         MOVFF   r0x02, r0x03
00003E C??? F???      02196         MOVFF   r0x03, r0x04
000042 ????           02197         BANKSEL _USB_EP0_to_send
                      02198         .line   58; ../include/usb/usb_ep0.c    USB_EP0_to_send.len = 0x00;
000044 6B??           02199         CLRF    _USB_EP0_to_send, B
000046 D???           02200         BRA     _00129_DS_
gpasm-1.4.0 #1107 (Feb 13 2015) ../include/us   4-21-2015  23:49:51         PAGE 47


LOC    OBJECT CODE    LINE  SOURCE TEXT
  VALUE

000048                02201 _00119_DS_:
                      02202         .line   60; ../include/usb/usb_ep0.c    i = USB_packet_length = EP0_BUFFER_SIZE;
000048 0E40           02203         MOVLW   0x40
Message[1301]: Using default destination of 0 (Access Bank).
00004A 6E??           02204         MOVWF   r0x04
00004C 0E40           02205         MOVLW   0x40
Message[1301]: Using default destination of 0 (Access Bank).
00004E 6E??           02206         MOVWF   r0x03
                      02207         .line   61; ../include/usb/usb_ep0.c    USB_EP0_to_send.len -= EP0_BUFFER_SIZE;
000050 0EC0           02208         MOVLW   0xc0
000052 26??           02209         ADDWF   r0x02, F
000054 50??           02210         MOVF    r0x02, W
000056 ????           02211         BANKSEL _USB_EP0_to_send
000058 6F??           02212         MOVWF   _USB_EP0_to_send, B
00005A                02213 _00129_DS_:
00005A C??? F???      02214         MOVFF   r0x03, r0x02
00005E                02215 _00123_DS_:
                      02216         .line   64; ../include/usb/usb_ep0.c    for (; i; i--) {
00005E 50??           02217         MOVF    r0x02, W
000060 E0??           02218         BZ      _00121_DS_
                      02219         .line   65; ../include/usb/usb_ep0.c    *adr = *USB_EP0_to_send.buff;
000062 C??? F???      02220         MOVFF   (_USB_EP0_to_send + 1), FSR0L
000066 C??? F???      02221         MOVFF   (_USB_EP0_to_send + 2), PRODL
00006A ????           02222         BANKSEL (_USB_EP0_to_send + 3)
00006C 51??           02223         MOVF    (_USB_EP0_to_send + 3), W, B
00006E EC?? F0??      02224         CALL    __gptrget1
Message[1301]: Using default destination of 0 (Access Bank).
000072 6E??           02225         MOVWF   r0x03
000074 C??? F???      02226         MOVFF   r0x00, FSR0L
000078 C??? F???      02227         MOVFF   r0x01, FSR0H
00007C C??? F???      02228         MOVFF   r0x03, INDF0
                      02229         .line   66; ../include/usb/usb_ep0.c    USB_EP0_to_send.buff++;
000080 C??? F???      02230         MOVFF   (_USB_EP0_to_send + 1), r0x03
000084 C??? F???      02231         MOVFF   (_USB_EP0_to_send + 2), r0x05
000088 C??? F???      02232         MOVFF   (_USB_EP0_to_send + 3), r0x06
00008C 2A??           02233         INCF    r0x03, F
00008E E3??           02234         BNC     _00138_DS_
000090 4A??           02235         INFSNZ  r0x05, F
000092 2A??           02236         INCF    r0x06, F
000094                02237 _00138_DS_:
000094 50??           02238         MOVF    r0x03, W
000096 ????           02239         BANKSEL (_USB_EP0_to_send + 1)
000098 6F??           02240         MOVWF   (_USB_EP0_to_send + 1), B
00009A 50??           02241         MOVF    r0x05, W
00009C ????           02242         BANKSEL (_USB_EP0_to_send + 2)
00009E 6F??           02243         MOVWF   (_USB_EP0_to_send + 2), B
0000A0 50??           02244         MOVF    r0x06, W
0000A2 ????           02245         BANKSEL (_USB_EP0_to_send + 3)
0000A4 6F??           02246         MOVWF   (_USB_EP0_to_send + 3), B
                      02247         .line   67; ../include/usb/usb_ep0.c    adr++;
0000A6 4A??           02248         INFSNZ  r0x00, F
0000A8 2A??           02249         INCF    r0x01, F
                      02250         .line   64; ../include/usb/usb_ep0.c    for (; i; i--) {
gpasm-1.4.0 #1107 (Feb 13 2015) ../include/us   4-21-2015  23:49:51         PAGE 48


LOC    OBJECT CODE    LINE  SOURCE TEXT
  VALUE

0000AA 06??           02251         DECF    r0x02, F
0000AC D???           02252         BRA     _00123_DS_
0000AE                02253 _00121_DS_:
                      02254         .line   70; ../include/usb/usb_ep0.c    return USB_packet_length;
0000AE 50??           02255         MOVF    r0x04, W
0000B0 CFE4 F000      02256         MOVFF   PREINC1, r0x06
0000B4 CFE4 F000      02257         MOVFF   PREINC1, r0x05
0000B8 CFE4 F000      02258         MOVFF   PREINC1, r0x04
0000BC CFE4 F000      02259         MOVFF   PREINC1, r0x03
0000C0 CFE4 F000      02260         MOVFF   PREINC1, r0x02
0000C4 CFE4 F000      02261         MOVFF   PREINC1, r0x01
0000C8 CFE4 F000      02262         MOVFF   PREINC1, r0x00
0000CC CFE4 FFD9      02263         MOVFF   PREINC1, FSR2L
0000D0 0012           02264         RETURN  
                      02265 
                      02266 ; ; Starting pCode block
                      02267 S_usb__USB_clear_all_EP_exept_EP0       code
000000                02268 _USB_clear_all_EP_exept_EP0:
                      02269         .line   59; ../include/usb/usb.c        static void USB_clear_all_EP_exept_EP0()
000000 CFD9 FFE5      02270         MOVFF   FSR2L, POSTDEC1
000004 CFE1 FFD9      02271         MOVFF   FSR1L, FSR2L
                      02272         .line   61; ../include/usb/usb.c        UEP1 = UEP2 = UEP3 = UEP4 = UEP5 = UEP6 = UEP7 = UEP8 = 
                            UEP9 = UEP10 = UEP11 = UEP12 = UEP13 = UEP14 = UEP15 = 0; 
Message[1301]: Using default destination of 0 (Access Bank).
000008 6A??           02273         CLRF    _UEP15
Message[1301]: Using default destination of 0 (Access Bank).
00000A 6A??           02274         CLRF    _UEP14
Message[1301]: Using default destination of 0 (Access Bank).
00000C 6A??           02275         CLRF    _UEP13
Message[1301]: Using default destination of 0 (Access Bank).
00000E 6A??           02276         CLRF    _UEP12
Message[1301]: Using default destination of 0 (Access Bank).
000010 6A??           02277         CLRF    _UEP11
Message[1301]: Using default destination of 0 (Access Bank).
000012 6A??           02278         CLRF    _UEP10
Message[1301]: Using default destination of 0 (Access Bank).
000014 6A??           02279         CLRF    _UEP9
Message[1301]: Using default destination of 0 (Access Bank).
000016 6A??           02280         CLRF    _UEP8
Message[1301]: Using default destination of 0 (Access Bank).
000018 6A??           02281         CLRF    _UEP7
Message[1301]: Using default destination of 0 (Access Bank).
00001A 6A??           02282         CLRF    _UEP6
Message[1301]: Using default destination of 0 (Access Bank).
00001C 6A??           02283         CLRF    _UEP5
Message[1301]: Using default destination of 0 (Access Bank).
00001E 6A??           02284         CLRF    _UEP4
Message[1301]: Using default destination of 0 (Access Bank).
000020 6A??           02285         CLRF    _UEP3
Message[1301]: Using default destination of 0 (Access Bank).
000022 6A??           02286         CLRF    _UEP2
Message[1301]: Using default destination of 0 (Access Bank).
000024 6A??           02287         CLRF    _UEP1
gpasm-1.4.0 #1107 (Feb 13 2015) ../include/us   4-21-2015  23:49:51         PAGE 49


LOC    OBJECT CODE    LINE  SOURCE TEXT
  VALUE

000026 CFE4 FFD9      02288         MOVFF   PREINC1, FSR2L
00002A 0012           02289         RETURN  
                      02290 
                      02291 ; ; Starting pCode block
                      02292 S_usb__USB_configuration0_endps_init    code
000000                02293 _USB_configuration0_endps_init:
                      02294         .line   51; ../include/usb/usb.c        static void USB_configuration0_endps_init(void)
000000 CFD9 FFE5      02295         MOVFF   FSR2L, POSTDEC1
000004 CFE1 FFD9      02296         MOVFF   FSR1L, FSR2L
                      02297         .line   54; ../include/usb/usb.c        USB_CONFIG_ENDPOINTS_INIT();
000008 EC?? F0??      02298         CALL    _USB_EP1_init
00000C EC?? F0??      02299         CALL    _USB_EP2_init
000010 CFE4 FFD9      02300         MOVFF   PREINC1, FSR2L
000014 0012           02301         RETURN  
                      02302 
                      02303 ; ; Starting pCode block for Ival
                      02304         code
000000                02305 _device_descriptor:
000000 0112 0200 0000 02306         DB      0x12, 0x01, 0x00, 0x02, 0x00, 0x00, 0x00, 0x40, 0xff, 0xff, 0x10, 0x00
       4000 FFFF 0010 
00000C 0003 0201 0103 02307         DB      0x03, 0x00, 0x01, 0x02, 0x03, 0x01
                      02308 ; ; Starting pCode block for Ival
000012                02309 _configuration0_descriptor:
000012 0209 0020 0101 02310         DB      0x09, 0x02, 0x20, 0x00, 0x01, 0x01, 0x00, 0x80, 0xfa, 0x09, 0x04, 0x00
       8000 09FA 0004 
00001E 0200 FFFF 00FF 02311         DB      0x00, 0x02, 0xff, 0xff, 0xff, 0x00, 0x07, 0x05, 0x01, 0x02, 0x40, 0x00
       0507 0201 0040 
00002A 0700 8205 4003 02312         DB      0x00, 0x07, 0x05, 0x82, 0x03, 0x40, 0x00, 0xff
       FF00           
                      02313 ; ; Starting pCode block for Ival
000032                02314 _string0_descriptor:
000032 0304 0409      02315         DB      0x04, 0x03, 0x09, 0x04
                      02316 ; ; Starting pCode block for Ival
000036                02317 _string1_descriptor:
000036 0314 004B 006F 02318         DB      0x14, 0x03, 0x4b, 0x00, 0x6f, 0x00, 0x6c, 0x00, 0x6f, 0x00, 0x54, 0x00
       006C 006F 0054 
000042 0065 0063 0068 02319         DB      0x65, 0x00, 0x63, 0x00, 0x68, 0x00, 0x20, 0x00
       0020           
                      02320 ; ; Starting pCode block for Ival
00004A                02321 _string2_descriptor:
00004A 0310 0067 006F 02322         DB      0x10, 0x03, 0x67, 0x00, 0x6f, 0x00, 0x64, 0x00, 0x70, 0x00, 0x69, 0x00
       0064 0070 0069 
000056 0063 0020      02323         DB      0x63, 0x00, 0x20, 0x00
                      02324 ; ; Starting pCode block for Ival
00005A                02325 _string3_descriptor:
00005A 0308 0034 0037 02326         DB      0x08, 0x03, 0x34, 0x00, 0x37, 0x00, 0x31, 0x00
       0031           
                      02327 
                      02328 
                      02329 ; Statistics:
                      02330 ; code size:     3828 (0x0ef4) bytes ( 2.92%)
                      02331 ;                1914 (0x077a) words
                      02332 ; udata size:     263 (0x0107) bytes (14.68%)
gpasm-1.4.0 #1107 (Feb 13 2015) ../include/us   4-21-2015  23:49:51         PAGE 50


LOC    OBJECT CODE    LINE  SOURCE TEXT
  VALUE

                      02333 ; access size:     11 (0x000b) bytes
                      02334 
                      02335 
                      02336         end
gpasm-1.4.0 #1107 (Feb 13 2015) ../include/us   4-21-2015  23:49:51         PAGE 51


SYMBOL TABLE
  LABEL                             VALUE

FSR0H                             00000FEA
FSR0L                             00000FE9
FSR1L                             00000FE1
FSR2L                             00000FD9
INDF0                             00000FEF
PCL                               00000FF9
PCLATH                            00000FFA
PCLATU                            00000FFB
PLUSW2                            00000FDB
POSTDEC1                          00000FE5
POSTINC0                          00000FEE
POSTINC1                          00000FE6
PREINC1                           00000FE4
PRODH                             00000FF4
PRODL                             00000FF3
STATUS                            00000FD8
WREG                              00000FE8
_00119_DS_                        00000048
_00121_DS_                        000000AE
_00123_DS_                        0000005E
_00129_DS_                        0000005A
_00138_DS_                        00000094
_00148_DS_                        000000DA
_00149_DS_                        0000011E
_00150_DS_                        00000146
_00156_DS_                        000001A6
_00157_DS_                        000001DE
_00160_DS_                        00000238
_00168_DS_                        000002EE
_00170_DS_                        00000322
_00171_DS_                        00000342
_00174_DS_                        0000038A
_00178_DS_                        000003AA
_00179_DS_                        000003E4
_00182_DS_                        000003EE
_00188_DS_                        00000478
_00194_DS_                        000004B2
_00197_DS_                        000004E6
_00198_DS_                        0000053A
_00200_DS_                        00000560
_00202_DS_                        00000586
_00203_DS_                        000005D4
_00204_DS_                        000005FA
_00205_DS_                        00000620
_00206_DS_                        00000646
_00211_DS_                        0000066C
_00212_DS_                        00000692
_00213_DS_                        000006B6
_00214_DS_                        000006C4
_00217_DS_                        000006E0
_00223_DS_                        00000738
_00231_DS_                        0000076C
_00232_DS_                        0000076E
gpasm-1.4.0 #1107 (Feb 13 2015) ../include/us   4-21-2015  23:49:51         PAGE 52


SYMBOL TABLE
  LABEL                             VALUE 

_00234_DS_                        000007CA
_00237_DS_                        00000802
_00240_DS_                        0000081C
_00241_DS_                        00000820
_00242_DS_                        00000834
_00243_DS_                        00000838
_00245_DS_                        00000214
_00246_DS_                        00000218
_00247_DS_                        0000029A
_00248_DS_                        000002B8
_00249_DS_                        00000414
_00250_DS_                        00000432
_00251_DS_                        00000466
_00252_DS_                        0000046A
_00253_DS_                        000004A0
_00254_DS_                        000004A4
_00373_DS_                        000000A6
_00376_DS_                        00000112
_00378_DS_                        0000015C
_00380_DS_                        00000164
_00395_DS_                        0000033E
_00397_DS_                        00000364
_00399_DS_                        0000036A
_00417_DS_                        0000052E
_00419_DS_                        000005C4
_00425_DS_                        000006F4
_00427_DS_                        00000712
_00429_DS_                        0000074C
_00431_DS_                        0000076A
_00433_DS_                        000007F6
_00434_DS_                        000007F8
_00441_DS_                        0000003A
_00443_DS_                        000000A4
_00468_DS_                        00000034
_00469_DS_                        00000040
_00471_DS_                        00000042
_00473_DS_                        0000007A
_00475_DS_                        00000080
_00492_DS_                        0000005C
_00493_DS_                        0000006E
_00494_DS_                        00000074
_00495_DS_                        0000007A
_00496_DS_                        0000007E
_00498_DS_                        00000082
_00500_DS_                        00000086
_00515_DS_                        0000002A
_00527_DS_                        00000010
_00529_DS_                        00000018
_00542_DS_                        00000020
_00545_DS_                        00000034
_00561_DS_                        00000028
_00564_DS_                        000000D6
_00566_DS_                        00000152
gpasm-1.4.0 #1107 (Feb 13 2015) ../include/us   4-21-2015  23:49:51         PAGE 53


SYMBOL TABLE
  LABEL                             VALUE 

_00568_DS_                        000001C2
_00569_DS_                        000001C8
_00570_DS_                        000001CC
_00573_DS_                        00000092
_00579_DS_                        0000008A
_00582_DS_                        00000080
_00585_DS_                        00000078
_00588_DS_                        00000070
_00591_DS_                        00000064
_00594_DS_                        00000030
_00598_DS_                        00000104
_00601_DS_                        00000112
_00603_DS_                        0000014A
_00606_DS_                        00000196
_00607_DS_                        000001A8
_00608_DS_                        000001AE
_00609_DS_                        000001B4
_00610_DS_                        000001B8
_00612_DS_                        000001BC
_00615_DS_                        000001DE
_00683_DS_                        000000CA
_00690_DS_                        00000164
_00703_DS_                        00000010
_00706_DS_                        0000002A
_ADCON0                           00000000
_ADCON0bits                       00000000
_ADCON1                           00000000
_ADCON1bits                       00000000
_ADCON2                           00000000
_ADCON2bits                       00000000
_ADRES                            00000000
_ADRESH                           00000000
_ADRESL                           00000000
_BAUDCON                          00000000
_BAUDCONbits                      00000000
_BAUDCTL                          00000000
_BAUDCTLbits                      00000000
_BSR                              00000000
_CCP1AS                           00000000
_CCP1ASbits                       00000000
_CCP1CON                          00000000
_CCP1CONbits                      00000000
_CCP1DEL                          00000000
_CCP1DELbits                      00000000
_CCP2CON                          00000000
_CCP2CONbits                      00000000
_CCPR1                            00000000
_CCPR1H                           00000000
_CCPR1L                           00000000
_CCPR2                            00000000
_CCPR2H                           00000000
_CCPR2L                           00000000
_CMCON                            00000000
gpasm-1.4.0 #1107 (Feb 13 2015) ../include/us   4-21-2015  23:49:51         PAGE 54


SYMBOL TABLE
  LABEL                             VALUE 

_CMCONbits                        00000000
_CVRCON                           00000000
_CVRCONbits                       00000000
_DDRA                             00000000
_DDRAbits                         00000000
_DDRB                             00000000
_DDRBbits                         00000000
_DDRC                             00000000
_DDRCbits                         00000000
_ECCP1AS                          00000000
_ECCP1ASbits                      00000000
_ECCP1DEL                         00000000
_ECCP1DELbits                     00000000
_EEADR                            00000000
_EECON1                           00000000
_EECON1bits                       00000000
_EECON2                           00000000
_EEDATA                           00000000
_FSR0H                            00000000
_FSR0L                            00000000
_FSR1H                            00000000
_FSR1L                            00000000
_FSR2H                            00000000
_FSR2L                            00000000
_HLVDCON                          00000000
_HLVDCONbits                      00000000
_INDF0                            00000000
_INDF1                            00000000
_INDF2                            00000000
_INTCON                           00000000
_INTCON2                          00000000
_INTCON2bits                      00000000
_INTCON3                          00000000
_INTCON3bits                      00000000
_INTCONbits                       00000000
_IPR1                             00000000
_IPR1bits                         00000000
_IPR2                             00000000
_IPR2bits                         00000000
_LATA                             00000000
_LATAbits                         00000000
_LATB                             00000000
_LATBbits                         00000000
_LATC                             00000000
_LATCbits                         00000000
_LVDCON                           00000000
_LVDCONbits                       00000000
_OSCCON                           00000000
_OSCCONbits                       00000000
_OSCTUNE                          00000000
_OSCTUNEbits                      00000000
_PC                               00000000
_PCL                              00000000
gpasm-1.4.0 #1107 (Feb 13 2015) ../include/us   4-21-2015  23:49:51         PAGE 55


SYMBOL TABLE
  LABEL                             VALUE 

_PCLATH                           00000000
_PCLATU                           00000000
_PIE1                             00000000
_PIE1bits                         00000000
_PIE2                             00000000
_PIE2bits                         00000000
_PIR1                             00000000
_PIR1bits                         00000000
_PIR2                             00000000
_PIR2bits                         00000000
_PLUSW0                           00000000
_PLUSW1                           00000000
_PLUSW2                           00000000
_PORTA                            00000000
_PORTAbits                        00000000
_PORTB                            00000000
_PORTBbits                        00000000
_PORTC                            00000000
_PORTCbits                        00000000
_PORTE                            00000000
_PORTEbits                        00000000
_POSTDEC0                         00000000
_POSTDEC1                         00000000
_POSTDEC2                         00000000
_POSTINC0                         00000000
_POSTINC1                         00000000
_POSTINC2                         00000000
_PR2                              00000000
_PREINC0                          00000000
_PREINC1                          00000000
_PREINC2                          00000000
_PROD                             00000000
_PRODH                            00000000
_PRODL                            00000000
_RCON                             00000000
_RCONbits                         00000000
_RCREG                            00000000
_RCSTA                            00000000
_RCSTAbits                        00000000
_SPBRG                            00000000
_SPBRGH                           00000000
_SSPADD                           00000000
_SSPBUF                           00000000
_SSPCON1                          00000000
_SSPCON1bits                      00000000
_SSPCON2                          00000000
_SSPCON2bits                      00000000
_SSPSTAT                          00000000
_SSPSTATbits                      00000000
_STATUS                           00000000
_STATUSbits                       00000000
_STKPTR                           00000000
_STKPTRbits                       00000000
gpasm-1.4.0 #1107 (Feb 13 2015) ../include/us   4-21-2015  23:49:51         PAGE 56


SYMBOL TABLE
  LABEL                             VALUE 

_T0CON                            00000000
_T0CONbits                        00000000
_T1CON                            00000000
_T1CONbits                        00000000
_T2CON                            00000000
_T2CONbits                        00000000
_T3CON                            00000000
_T3CONbits                        00000000
_TABLAT                           00000000
_TBLPTR                           00000000
_TBLPTRH                          00000000
_TBLPTRL                          00000000
_TBLPTRU                          00000000
_TMR0                             00000000
_TMR0H                            00000000
_TMR0L                            00000000
_TMR1                             00000000
_TMR1H                            00000000
_TMR1L                            00000000
_TMR2                             00000000
_TMR3                             00000000
_TMR3H                            00000000
_TMR3L                            00000000
_TOS                              00000000
_TOSH                             00000000
_TOSL                             00000000
_TOSU                             00000000
_TRISA                            00000000
_TRISAbits                        00000000
_TRISB                            00000000
_TRISBbits                        00000000
_TRISC                            00000000
_TRISCbits                        00000000
_TXREG                            00000000
_TXSTA                            00000000
_TXSTAbits                        00000000
_UADDR                            00000000
_UADDRbits                        00000000
_UCFG                             00000000
_UCFGbits                         00000000
_UCON                             00000000
_UCONbits                         00000000
_UEIE                             00000000
_UEIEbits                         00000000
_UEIR                             00000000
_UEIRbits                         00000000
_UEP0                             00000000
_UEP0bits                         00000000
_UEP1                             00000000
_UEP10                            00000000
_UEP10bits                        00000000
_UEP11                            00000000
_UEP11bits                        00000000
gpasm-1.4.0 #1107 (Feb 13 2015) ../include/us   4-21-2015  23:49:51         PAGE 57


SYMBOL TABLE
  LABEL                             VALUE 

_UEP12                            00000000
_UEP12bits                        00000000
_UEP13                            00000000
_UEP13bits                        00000000
_UEP14                            00000000
_UEP14bits                        00000000
_UEP15                            00000000
_UEP15bits                        00000000
_UEP1bits                         00000000
_UEP2                             00000000
_UEP2bits                         00000000
_UEP3                             00000000
_UEP3bits                         00000000
_UEP4                             00000000
_UEP4bits                         00000000
_UEP5                             00000000
_UEP5bits                         00000000
_UEP6                             00000000
_UEP6bits                         00000000
_UEP7                             00000000
_UEP7bits                         00000000
_UEP8                             00000000
_UEP8bits                         00000000
_UEP9                             00000000
_UEP9bits                         00000000
_UFRM                             00000000
_UFRMH                            00000000
_UFRMHbits                        00000000
_UFRML                            00000000
_UFRMLbits                        00000000
_UIE                              00000000
_UIEbits                          00000000
_UIR                              00000000
_UIRbits                          00000000
_USB_EP0_fill_adr                 00000000
_USB_EP0_in_buffer                00000040
_USB_EP0_in_token                 00000000
_USB_EP0_init                     00000000
_USB_EP0_out_buffer               00000000
_USB_EP0_out_token                00000000
_USB_EP0_to_send                  00000000
_USB_EP1_init                     00000000
_USB_EP1_transmission             00000000
_USB_EP2_init                     00000000
_USB_EP2_transmission             00000000
_USB_clear_all_EP_exept_EP0       00000000
_USB_configuration0_endps_init    00000000
_USB_init                         00000000
_USB_request_error                00000000
_USB_reset                        00000000
_USB_service                      00000000
_USB_standard_request             00000000
_USB_wait_for_configured_state    00000000
gpasm-1.4.0 #1107 (Feb 13 2015) ../include/us   4-21-2015  23:49:51         PAGE 58


SYMBOL TABLE
  LABEL                             VALUE 

_USB_wait_for_powerered_state     00000000
_USTAT                            00000000
_USTATbits                        00000000
_WDTCON                           00000000
_WDTCONbits                       00000000
_WREG                             00000000
__18F2550                         00000001
__ACC_RAM_LOW_END                 0000005F
__CODE_END                        00007FFF
__CODE_START                      00000000
__EEPROM_END                      00F000FF
__EEPROM_START                    00F00000
__VECTOR_INT_HIGH                 00000008
__VECTOR_INT_LOW                  00000018
__VECTOR_RESET                    00000000
__gptrget1                        00000000
__gptrput1                        00000000
_configuration0_descriptor        00000012
_device_descriptor                00000000
_string0_descriptor               00000032
_string1_descriptor               00000036
_string2_descriptor               0000004A
_string3_descriptor               0000005A
_usb_bd                           00000000
_usb_ustat                        00000000
_usbdev                           00000000
r0x00                             00000000
r0x01                             00000001
r0x02                             00000002
r0x03                             00000003
r0x04                             00000004
r0x05                             00000005
r0x06                             00000006
r0x07                             00000007
r0x08                             00000008
r0x09                             00000009
r0x0a                             0000000A

Errors   :     0
Warnings :     0 reported,     0 suppressed
Messages :   202 reported,     0 suppressed

