gpasm-1.4.0 #1107 (Feb 13 2015)   hd44780.asm   4-21-2015  23:49:48         PAGE  1


LOC    OBJECT CODE    LINE  SOURCE TEXT
  VALUE

                      00001 ;--------------------------------------------------------
                      00002 ; File Created by SDCC : free open source ANSI-C Compiler
                      00003 ; Version 3.4.0 #8981 (May 19 2014) (Linux)
                      00004 ; This file was generated Tue Apr 21 23:49:47 2015
                      00005 ;--------------------------------------------------------
                      00006 ; PIC16 port for the Microchip 16-bit core micros
                      00007 ;--------------------------------------------------------
                      00008 
                      00009         .ident "SDCC version 3.4.0 #8981 [pic16 port]"
                      00010         .file   "hd44780.c"
                      00011         list    p=18f2550
                      00012         radix   dec
                      00013 
                      00014 
                      00015 ;--------------------------------------------------------
                      00016 ; public variables in this module
                      00017 ;--------------------------------------------------------
  0000                00018         global  _hd44780_recv
  0000                00019         global  _hd44780_send
  0000                00020         global  _hd44780_send_all
  0000                00021         global  _hd44780_init
  0000                00022         global  _lcddev
                      00023 
                      00024 ;--------------------------------------------------------
                      00025 ; extern variables in this module
                      00026 ;--------------------------------------------------------
  0000                00027         extern  _UFRMLbits
  0000                00028         extern  _UFRMHbits
  0000                00029         extern  _UIRbits
  0000                00030         extern  _UIEbits
  0000                00031         extern  _UEIRbits
  0000                00032         extern  _UEIEbits
  0000                00033         extern  _USTATbits
  0000                00034         extern  _UCONbits
  0000                00035         extern  _UADDRbits
  0000                00036         extern  _UCFGbits
  0000                00037         extern  _UEP0bits
  0000                00038         extern  _UEP1bits
  0000                00039         extern  _UEP2bits
  0000                00040         extern  _UEP3bits
  0000                00041         extern  _UEP4bits
  0000                00042         extern  _UEP5bits
  0000                00043         extern  _UEP6bits
  0000                00044         extern  _UEP7bits
  0000                00045         extern  _UEP8bits
  0000                00046         extern  _UEP9bits
  0000                00047         extern  _UEP10bits
  0000                00048         extern  _UEP11bits
  0000                00049         extern  _UEP12bits
  0000                00050         extern  _UEP13bits
  0000                00051         extern  _UEP14bits
  0000                00052         extern  _UEP15bits
  0000                00053         extern  _PORTAbits
gpasm-1.4.0 #1107 (Feb 13 2015)   hd44780.asm   4-21-2015  23:49:48         PAGE  2


LOC    OBJECT CODE    LINE  SOURCE TEXT
  VALUE

  0000                00054         extern  _PORTBbits
  0000                00055         extern  _PORTCbits
  0000                00056         extern  _PORTEbits
  0000                00057         extern  _LATAbits
  0000                00058         extern  _LATBbits
  0000                00059         extern  _LATCbits
  0000                00060         extern  _DDRAbits
  0000                00061         extern  _TRISAbits
  0000                00062         extern  _DDRBbits
  0000                00063         extern  _TRISBbits
  0000                00064         extern  _DDRCbits
  0000                00065         extern  _TRISCbits
  0000                00066         extern  _OSCTUNEbits
  0000                00067         extern  _PIE1bits
  0000                00068         extern  _PIR1bits
  0000                00069         extern  _IPR1bits
  0000                00070         extern  _PIE2bits
  0000                00071         extern  _PIR2bits
  0000                00072         extern  _IPR2bits
  0000                00073         extern  _EECON1bits
  0000                00074         extern  _RCSTAbits
  0000                00075         extern  _TXSTAbits
  0000                00076         extern  _T3CONbits
  0000                00077         extern  _CMCONbits
  0000                00078         extern  _CVRCONbits
  0000                00079         extern  _CCP1ASbits
  0000                00080         extern  _ECCP1ASbits
  0000                00081         extern  _CCP1DELbits
  0000                00082         extern  _ECCP1DELbits
  0000                00083         extern  _BAUDCONbits
  0000                00084         extern  _BAUDCTLbits
  0000                00085         extern  _CCP2CONbits
  0000                00086         extern  _CCP1CONbits
  0000                00087         extern  _ADCON2bits
  0000                00088         extern  _ADCON1bits
  0000                00089         extern  _ADCON0bits
  0000                00090         extern  _SSPCON2bits
  0000                00091         extern  _SSPCON1bits
  0000                00092         extern  _SSPSTATbits
  0000                00093         extern  _T2CONbits
  0000                00094         extern  _T1CONbits
  0000                00095         extern  _RCONbits
  0000                00096         extern  _WDTCONbits
  0000                00097         extern  _HLVDCONbits
  0000                00098         extern  _LVDCONbits
  0000                00099         extern  _OSCCONbits
  0000                00100         extern  _T0CONbits
  0000                00101         extern  _STATUSbits
  0000                00102         extern  _INTCON3bits
  0000                00103         extern  _INTCON2bits
  0000                00104         extern  _INTCONbits
  0000                00105         extern  _STKPTRbits
  0000                00106         extern  _UFRM
gpasm-1.4.0 #1107 (Feb 13 2015)   hd44780.asm   4-21-2015  23:49:48         PAGE  3


LOC    OBJECT CODE    LINE  SOURCE TEXT
  VALUE

  0000                00107         extern  _UFRML
  0000                00108         extern  _UFRMH
  0000                00109         extern  _UIR
  0000                00110         extern  _UIE
  0000                00111         extern  _UEIR
  0000                00112         extern  _UEIE
  0000                00113         extern  _USTAT
  0000                00114         extern  _UCON
  0000                00115         extern  _UADDR
  0000                00116         extern  _UCFG
  0000                00117         extern  _UEP0
  0000                00118         extern  _UEP1
  0000                00119         extern  _UEP2
  0000                00120         extern  _UEP3
  0000                00121         extern  _UEP4
  0000                00122         extern  _UEP5
  0000                00123         extern  _UEP6
  0000                00124         extern  _UEP7
  0000                00125         extern  _UEP8
  0000                00126         extern  _UEP9
  0000                00127         extern  _UEP10
  0000                00128         extern  _UEP11
  0000                00129         extern  _UEP12
  0000                00130         extern  _UEP13
  0000                00131         extern  _UEP14
  0000                00132         extern  _UEP15
  0000                00133         extern  _PORTA
  0000                00134         extern  _PORTB
  0000                00135         extern  _PORTC
  0000                00136         extern  _PORTE
  0000                00137         extern  _LATA
  0000                00138         extern  _LATB
  0000                00139         extern  _LATC
  0000                00140         extern  _DDRA
  0000                00141         extern  _TRISA
  0000                00142         extern  _DDRB
  0000                00143         extern  _TRISB
  0000                00144         extern  _DDRC
  0000                00145         extern  _TRISC
  0000                00146         extern  _OSCTUNE
  0000                00147         extern  _PIE1
  0000                00148         extern  _PIR1
  0000                00149         extern  _IPR1
  0000                00150         extern  _PIE2
  0000                00151         extern  _PIR2
  0000                00152         extern  _IPR2
  0000                00153         extern  _EECON1
  0000                00154         extern  _EECON2
  0000                00155         extern  _EEDATA
  0000                00156         extern  _EEADR
  0000                00157         extern  _RCSTA
  0000                00158         extern  _TXSTA
  0000                00159         extern  _TXREG
gpasm-1.4.0 #1107 (Feb 13 2015)   hd44780.asm   4-21-2015  23:49:48         PAGE  4


LOC    OBJECT CODE    LINE  SOURCE TEXT
  VALUE

  0000                00160         extern  _RCREG
  0000                00161         extern  _SPBRG
  0000                00162         extern  _SPBRGH
  0000                00163         extern  _T3CON
  0000                00164         extern  _TMR3
  0000                00165         extern  _TMR3L
  0000                00166         extern  _TMR3H
  0000                00167         extern  _CMCON
  0000                00168         extern  _CVRCON
  0000                00169         extern  _CCP1AS
  0000                00170         extern  _ECCP1AS
  0000                00171         extern  _CCP1DEL
  0000                00172         extern  _ECCP1DEL
  0000                00173         extern  _BAUDCON
  0000                00174         extern  _BAUDCTL
  0000                00175         extern  _CCP2CON
  0000                00176         extern  _CCPR2
  0000                00177         extern  _CCPR2L
  0000                00178         extern  _CCPR2H
  0000                00179         extern  _CCP1CON
  0000                00180         extern  _CCPR1
  0000                00181         extern  _CCPR1L
  0000                00182         extern  _CCPR1H
  0000                00183         extern  _ADCON2
  0000                00184         extern  _ADCON1
  0000                00185         extern  _ADCON0
  0000                00186         extern  _ADRES
  0000                00187         extern  _ADRESL
  0000                00188         extern  _ADRESH
  0000                00189         extern  _SSPCON2
  0000                00190         extern  _SSPCON1
  0000                00191         extern  _SSPSTAT
  0000                00192         extern  _SSPADD
  0000                00193         extern  _SSPBUF
  0000                00194         extern  _T2CON
  0000                00195         extern  _PR2
  0000                00196         extern  _TMR2
  0000                00197         extern  _T1CON
  0000                00198         extern  _TMR1
  0000                00199         extern  _TMR1L
  0000                00200         extern  _TMR1H
  0000                00201         extern  _RCON
  0000                00202         extern  _WDTCON
  0000                00203         extern  _HLVDCON
  0000                00204         extern  _LVDCON
  0000                00205         extern  _OSCCON
  0000                00206         extern  _T0CON
  0000                00207         extern  _TMR0
  0000                00208         extern  _TMR0L
  0000                00209         extern  _TMR0H
  0000                00210         extern  _STATUS
  0000                00211         extern  _FSR2L
  0000                00212         extern  _FSR2H
gpasm-1.4.0 #1107 (Feb 13 2015)   hd44780.asm   4-21-2015  23:49:48         PAGE  5


LOC    OBJECT CODE    LINE  SOURCE TEXT
  VALUE

  0000                00213         extern  _PLUSW2
  0000                00214         extern  _PREINC2
  0000                00215         extern  _POSTDEC2
  0000                00216         extern  _POSTINC2
  0000                00217         extern  _INDF2
  0000                00218         extern  _BSR
  0000                00219         extern  _FSR1L
  0000                00220         extern  _FSR1H
  0000                00221         extern  _PLUSW1
  0000                00222         extern  _PREINC1
  0000                00223         extern  _POSTDEC1
  0000                00224         extern  _POSTINC1
  0000                00225         extern  _INDF1
  0000                00226         extern  _WREG
  0000                00227         extern  _FSR0L
  0000                00228         extern  _FSR0H
  0000                00229         extern  _PLUSW0
  0000                00230         extern  _PREINC0
  0000                00231         extern  _POSTDEC0
  0000                00232         extern  _POSTINC0
  0000                00233         extern  _INDF0
  0000                00234         extern  _INTCON3
  0000                00235         extern  _INTCON2
  0000                00236         extern  _INTCON
  0000                00237         extern  _PROD
  0000                00238         extern  _PRODL
  0000                00239         extern  _PRODH
  0000                00240         extern  _TABLAT
  0000                00241         extern  _TBLPTR
  0000                00242         extern  _TBLPTRL
  0000                00243         extern  _TBLPTRH
  0000                00244         extern  _TBLPTRU
  0000                00245         extern  _PC
  0000                00246         extern  _PCL
  0000                00247         extern  _PCLATH
  0000                00248         extern  _PCLATU
  0000                00249         extern  _STKPTR
  0000                00250         extern  _TOS
  0000                00251         extern  _TOSL
  0000                00252         extern  _TOSH
  0000                00253         extern  _TOSU
                      00254 
                      00255 ;--------------------------------------------------------
                      00256 ;       Equates to used internal registers
                      00257 ;--------------------------------------------------------
  00000FD8            00258 STATUS  equ     0xfd8
  00000FE8            00259 WREG    equ     0xfe8
  00000FE1            00260 FSR1L   equ     0xfe1
  00000FD9            00261 FSR2L   equ     0xfd9
  00000FE6            00262 POSTINC1        equ     0xfe6
  00000FE5            00263 POSTDEC1        equ     0xfe5
  00000FE4            00264 PREINC1 equ     0xfe4
  00000FDB            00265 PLUSW2  equ     0xfdb
gpasm-1.4.0 #1107 (Feb 13 2015)   hd44780.asm   4-21-2015  23:49:48         PAGE  6


LOC    OBJECT CODE    LINE  SOURCE TEXT
  VALUE

                      00266 
                      00267 
                      00268 ; Internal registers
                      00269 .registers      udata_ovr       0x0000
000000                00270 r0x00   res     1
000001                00271 r0x01   res     1
000002                00272 r0x02   res     1
000003                00273 r0x03   res     1
000004                00274 r0x04   res     1
                      00275 
                      00276 udata_hd44780_0 udata
000000                00277 _lcddev res     1
                      00278 
                      00279 ;--------------------------------------------------------
                      00280 ; global & static initialisations
                      00281 ;--------------------------------------------------------
                      00282 ; I code from now on!
                      00283 ; ; Starting pCode block
                      00284 S_hd44780__hd44780_init code
000000                00285 _hd44780_init:
                      00286         .line   306; hd44780.c  void hd44780_init(void) 
000000 CFD9 FFE5      00287         MOVFF   FSR2L, POSTDEC1
000004 CFE1 FFD9      00288         MOVFF   FSR1L, FSR2L
000008 C??? F???      00289         MOVFF   r0x00, POSTDEC1
00000C C??? F???      00290         MOVFF   r0x01, POSTDEC1
                      00291         .line   114; hd44780.c  ADCON0=0x00; // turn off analog to digital conversion module
Message[1301]: Using default destination of 0 (Access Bank).
000010 6A??           00292         CLRF    _ADCON0
                      00293         .line   115; hd44780.c  ADCON1=0x0f; // set all analog to digital conversion module inputs as di
                            gital inputs/outputs
000012 0E0F           00294         MOVLW   0x0f
Message[1301]: Using default destination of 0 (Access Bank).
000014 6E??           00295         MOVWF   _ADCON1
                      00296         .line   116; hd44780.c  CMCON=0x07; // turn off comparator module
000016 0E07           00297         MOVLW   0x07
Message[1301]: Using default destination of 0 (Access Bank).
000018 6E??           00298         MOVWF   _CMCON
                      00299         .line   119; hd44780.c  PORTA=0x00;
Message[1301]: Using default destination of 0 (Access Bank).
00001A 6A??           00300         CLRF    _PORTA
                      00301         .line   120; hd44780.c  LATA=0x00;
Message[1301]: Using default destination of 0 (Access Bank).
00001C 6A??           00302         CLRF    _LATA
                      00303         .line   121; hd44780.c  TRISA=0x00;
Message[1301]: Using default destination of 0 (Access Bank).
00001E 6A??           00304         CLRF    _TRISA
                      00305         .line   124; hd44780.c  PORTB=0x00;
Message[1301]: Using default destination of 0 (Access Bank).
000020 6A??           00306         CLRF    _PORTB
                      00307         .line   125; hd44780.c  LATB=0x00;
Message[1301]: Using default destination of 0 (Access Bank).
000022 6A??           00308         CLRF    _LATB
                      00309         .line   126; hd44780.c  TRISB=0x00;
gpasm-1.4.0 #1107 (Feb 13 2015)   hd44780.asm   4-21-2015  23:49:48         PAGE  7


LOC    OBJECT CODE    LINE  SOURCE TEXT
  VALUE

Message[1301]: Using default destination of 0 (Access Bank).
000024 6A??           00310         CLRF    _TRISB
                      00311         .line   129; hd44780.c  PORTC=0x00;
Message[1301]: Using default destination of 0 (Access Bank).
000026 6A??           00312         CLRF    _PORTC
                      00313         .line   130; hd44780.c  LATC=0x00;
Message[1301]: Using default destination of 0 (Access Bank).
000028 6A??           00314         CLRF    _LATC
                      00315         .line   131; hd44780.c  TRISC=0x00;
Message[1301]: Using default destination of 0 (Access Bank).
00002A 6A??           00316         CLRF    _TRISC
                      00317         .line   133; hd44780.c  _hd44780_data_set_(0x00);
Message[1301]: Using default destination of 0 (Access Bank).
00002C 6A??           00318         CLRF    _PORTB
                      00319         .line   134; hd44780.c  _hd44780_data_reverse_();
00002E 0EFF           00320         MOVLW   0xff
Message[1301]: Using default destination of 0 (Access Bank).
000030 6E??           00321         MOVWF   _TRISB
                      00322         .line   225; hd44780.c  set_bit(FLAG_NOBFCHECK, lcddev.flags);
000032 0E02           00323         MOVLW   0x02
000034 ????           00324         BANKSEL _lcddev
000036 11??           00325         IORWF   _lcddev, W, B
Message[1301]: Using default destination of 0 (Access Bank).
000038 6E??           00326         MOVWF   r0x00
00003A 50??           00327         MOVF    r0x00, W
00003C ????           00328         BANKSEL _lcddev
00003E 6F??           00329         MOVWF   _lcddev, B
                      00330         .line   228; hd44780.c  for (i = 43; i; --i)
000040 0E2B           00331         MOVLW   0x2b
Message[1301]: Using default destination of 0 (Access Bank).
000042 6E??           00332         MOVWF   r0x00
000044                00333 _00447_DS_:
                      00334         .line   229; hd44780.c  for (j=0xff; j; --j);
000044 0EFF           00335         MOVLW   0xff
Message[1301]: Using default destination of 0 (Access Bank).
000046 6E??           00336         MOVWF   r0x01
000048                00337 _00424_DS_:
000048 2E??           00338         DECFSZ  r0x01, F
00004A D???           00339         BRA     _00424_DS_
                      00340         .line   228; hd44780.c  for (i = 43; i; --i)
00004C 2E??           00341         DECFSZ  r0x00, F
00004E D???           00342         BRA     _00447_DS_
                      00343         .line   235; hd44780.c  HD44780_FS_5x8DOTS);
000050 0E30           00344         MOVLW   0x30
Message[1301]: Using default destination of 0 (Access Bank).
000052 6EE5           00345         MOVWF   POSTDEC1
000054 0E00           00346         MOVLW   0x00
Message[1301]: Using default destination of 0 (Access Bank).
000056 6EE5           00347         MOVWF   POSTDEC1
000058 EC?? F0??      00348         CALL    _hd44780_send_all
00005C 52E6           00349         MOVF    POSTINC1, F
00005E 52E6           00350         MOVF    POSTINC1, F
                      00351         .line   237; hd44780.c  for (i = 17; i; --i)
gpasm-1.4.0 #1107 (Feb 13 2015)   hd44780.asm   4-21-2015  23:49:48         PAGE  8


LOC    OBJECT CODE    LINE  SOURCE TEXT
  VALUE

000060 0E11           00352         MOVLW   0x11
Message[1301]: Using default destination of 0 (Access Bank).
000062 6E??           00353         MOVWF   r0x00
000064                00354 _00451_DS_:
                      00355         .line   239; hd44780.c  do { }while(0);
000064 0EFF           00356         MOVLW   0xff
Message[1301]: Using default destination of 0 (Access Bank).
000066 6E??           00357         MOVWF   r0x01
000068                00358 _00396_DS_:
                      00359         .line   238; hd44780.c  for (j = 0xff; j; --j)
000068 2E??           00360         DECFSZ  r0x01, F
00006A D???           00361         BRA     _00396_DS_
                      00362         .line   237; hd44780.c  for (i = 17; i; --i)
00006C 2E??           00363         DECFSZ  r0x00, F
00006E D???           00364         BRA     _00451_DS_
                      00365         .line   243; hd44780.c  HD44780_FS_5x8DOTS);
000070 0E30           00366         MOVLW   0x30
Message[1301]: Using default destination of 0 (Access Bank).
000072 6EE5           00367         MOVWF   POSTDEC1
000074 0E00           00368         MOVLW   0x00
Message[1301]: Using default destination of 0 (Access Bank).
000076 6EE5           00369         MOVWF   POSTDEC1
000078 EC?? F0??      00370         CALL    _hd44780_send_all
00007C 52E6           00371         MOVF    POSTINC1, F
00007E 52E6           00372         MOVF    POSTINC1, F
                      00373         .line   245; hd44780.c  for (i = 2; i; --i)
000080 0E02           00374         MOVLW   0x02
Message[1301]: Using default destination of 0 (Access Bank).
000082 6E??           00375         MOVWF   r0x00
000084                00376 _00455_DS_:
                      00377         .line   246; hd44780.c  for (j = 0xff; j; --j);
000084 0EFF           00378         MOVLW   0xff
Message[1301]: Using default destination of 0 (Access Bank).
000086 6E??           00379         MOVWF   r0x01
000088                00380 _00432_DS_:
000088 2E??           00381         DECFSZ  r0x01, F
00008A D???           00382         BRA     _00432_DS_
                      00383         .line   245; hd44780.c  for (i = 2; i; --i)
00008C 2E??           00384         DECFSZ  r0x00, F
00008E D???           00385         BRA     _00455_DS_
                      00386         .line   251; hd44780.c  HD44780_FS_5x8DOTS);
000090 0E30           00387         MOVLW   0x30
Message[1301]: Using default destination of 0 (Access Bank).
000092 6EE5           00388         MOVWF   POSTDEC1
000094 0E00           00389         MOVLW   0x00
Message[1301]: Using default destination of 0 (Access Bank).
000096 6EE5           00390         MOVWF   POSTDEC1
000098 EC?? F0??      00391         CALL    _hd44780_send_all
00009C 52E6           00392         MOVF    POSTINC1, F
00009E 52E6           00393         MOVF    POSTINC1, F
                      00394         .line   260; hd44780.c  do { }while(0);
0000A0 0E70           00395         MOVLW   0x70
Message[1301]: Using default destination of 0 (Access Bank).
gpasm-1.4.0 #1107 (Feb 13 2015)   hd44780.asm   4-21-2015  23:49:48         PAGE  9


LOC    OBJECT CODE    LINE  SOURCE TEXT
  VALUE

0000A2 6E??           00396         MOVWF   r0x00
0000A4                00397 _00404_DS_:
                      00398         .line   259; hd44780.c  for (i = 112; i; --i)
0000A4 2E??           00399         DECFSZ  r0x00, F
0000A6 D???           00400         BRA     _00404_DS_
                      00401         .line   264; hd44780.c  HD44780_FS_5x8DOTS);
0000A8 0E30           00402         MOVLW   0x30
Message[1301]: Using default destination of 0 (Access Bank).
0000AA 6EE5           00403         MOVWF   POSTDEC1
0000AC 0E00           00404         MOVLW   0x00
Message[1301]: Using default destination of 0 (Access Bank).
0000AE 6EE5           00405         MOVWF   POSTDEC1
0000B0 EC?? F0??      00406         CALL    _hd44780_send_all
0000B4 52E6           00407         MOVF    POSTINC1, F
0000B6 52E6           00408         MOVF    POSTINC1, F
                      00409         .line   267; hd44780.c  do { }while(0);
0000B8 0E70           00410         MOVLW   0x70
Message[1301]: Using default destination of 0 (Access Bank).
0000BA 6E??           00411         MOVWF   r0x00
0000BC                00412 _00407_DS_:
                      00413         .line   266; hd44780.c  for (i = 112; i; --i)
0000BC 2E??           00414         DECFSZ  r0x00, F
0000BE D???           00415         BRA     _00407_DS_
                      00416         .line   271; hd44780.c  HD44780_DOOC_CURSORNOBLINK); /* display off */
0000C0 0E08           00417         MOVLW   0x08
Message[1301]: Using default destination of 0 (Access Bank).
0000C2 6EE5           00418         MOVWF   POSTDEC1
0000C4 0E00           00419         MOVLW   0x00
Message[1301]: Using default destination of 0 (Access Bank).
0000C6 6EE5           00420         MOVWF   POSTDEC1
0000C8 EC?? F0??      00421         CALL    _hd44780_send_all
0000CC 52E6           00422         MOVF    POSTINC1, F
0000CE 52E6           00423         MOVF    POSTINC1, F
                      00424         .line   274; hd44780.c  do { }while(0);
0000D0 0E70           00425         MOVLW   0x70
Message[1301]: Using default destination of 0 (Access Bank).
0000D2 6E??           00426         MOVWF   r0x00
0000D4                00427 _00410_DS_:
                      00428         .line   273; hd44780.c  for (i = 112; i; --i)
0000D4 2E??           00429         DECFSZ  r0x00, F
0000D6 D???           00430         BRA     _00410_DS_
                      00431         .line   276; hd44780.c  HD44780_CLRDISP); /* display clear */
0000D8 0E01           00432         MOVLW   0x01
Message[1301]: Using default destination of 0 (Access Bank).
0000DA 6EE5           00433         MOVWF   POSTDEC1
0000DC 0E00           00434         MOVLW   0x00
Message[1301]: Using default destination of 0 (Access Bank).
0000DE 6EE5           00435         MOVWF   POSTDEC1
0000E0 EC?? F0??      00436         CALL    _hd44780_send_all
0000E4 52E6           00437         MOVF    POSTINC1, F
0000E6 52E6           00438         MOVF    POSTINC1, F
                      00439         .line   279; hd44780.c  do { }while(0);
0000E8 0E70           00440         MOVLW   0x70
gpasm-1.4.0 #1107 (Feb 13 2015)   hd44780.asm   4-21-2015  23:49:48         PAGE 10


LOC    OBJECT CODE    LINE  SOURCE TEXT
  VALUE

Message[1301]: Using default destination of 0 (Access Bank).
0000EA 6E??           00441         MOVWF   r0x00
0000EC                00442 _00413_DS_:
                      00443         .line   278; hd44780.c  for (i = 112; i; --i)
0000EC 2E??           00444         DECFSZ  r0x00, F
0000EE D???           00445         BRA     _00413_DS_
                      00446         .line   281; hd44780.c  HD44780_EMS_INC | HD44780_EMS_NOSHIFT);
0000F0 0E06           00447         MOVLW   0x06
Message[1301]: Using default destination of 0 (Access Bank).
0000F2 6EE5           00448         MOVWF   POSTDEC1
0000F4 0E00           00449         MOVLW   0x00
Message[1301]: Using default destination of 0 (Access Bank).
0000F6 6EE5           00450         MOVWF   POSTDEC1
0000F8 EC?? F0??      00451         CALL    _hd44780_send_all
0000FC 52E6           00452         MOVF    POSTINC1, F
0000FE 52E6           00453         MOVF    POSTINC1, F
                      00454         .line   284; hd44780.c  do { }while(0);
000100 0E70           00455         MOVLW   0x70
Message[1301]: Using default destination of 0 (Access Bank).
000102 6E??           00456         MOVWF   r0x00
000104                00457 _00416_DS_:
                      00458         .line   283; hd44780.c  for (i = 112; i; --i)
000104 2E??           00459         DECFSZ  r0x00, F
000106 D???           00460         BRA     _00416_DS_
000108 ????           00461         BANKSEL _lcddev
                      00462         .line   287; hd44780.c  clear_bit(FLAG_NOBFCHECK, lcddev.flags);
00010A 6B??           00463         CLRF    _lcddev, B
00010C ????           00464         BANKSEL _lcddev
                      00465         .line   312; hd44780.c  lcddev_init();
00010E 6B??           00466         CLRF    _lcddev, B
                      00467         .line   315; hd44780.c  write_inst_all( HD44780_FS_DATAWIDTH8BIT |
000110 0E38           00468         MOVLW   0x38
Message[1301]: Using default destination of 0 (Access Bank).
000112 6EE5           00469         MOVWF   POSTDEC1
000114 0E00           00470         MOVLW   0x00
Message[1301]: Using default destination of 0 (Access Bank).
000116 6EE5           00471         MOVWF   POSTDEC1
000118 EC?? F0??      00472         CALL    _hd44780_send_all
00011C 52E6           00473         MOVF    POSTINC1, F
00011E 52E6           00474         MOVF    POSTINC1, F
                      00475         .line   318; hd44780.c  write_inst_all( HD44780_DOOC_DISPLAYON |
000120 0E0F           00476         MOVLW   0x0f
Message[1301]: Using default destination of 0 (Access Bank).
000122 6EE5           00477         MOVWF   POSTDEC1
000124 0E00           00478         MOVLW   0x00
Message[1301]: Using default destination of 0 (Access Bank).
000126 6EE5           00479         MOVWF   POSTDEC1
000128 EC?? F0??      00480         CALL    _hd44780_send_all
00012C 52E6           00481         MOVF    POSTINC1, F
00012E 52E6           00482         MOVF    POSTINC1, F
                      00483         .line   321; hd44780.c  write_inst_all( HD44780_CLRDISP);
000130 0E01           00484         MOVLW   0x01
Message[1301]: Using default destination of 0 (Access Bank).
gpasm-1.4.0 #1107 (Feb 13 2015)   hd44780.asm   4-21-2015  23:49:48         PAGE 11


LOC    OBJECT CODE    LINE  SOURCE TEXT
  VALUE

000132 6EE5           00485         MOVWF   POSTDEC1
000134 0E00           00486         MOVLW   0x00
Message[1301]: Using default destination of 0 (Access Bank).
000136 6EE5           00487         MOVWF   POSTDEC1
000138 EC?? F0??      00488         CALL    _hd44780_send_all
00013C 52E6           00489         MOVF    POSTINC1, F
00013E 52E6           00490         MOVF    POSTINC1, F
                      00491         .line   322; hd44780.c  write_inst_all( HD44780_EMS_INC | HD44780_EMS_NOSHIFT);
000140 0E06           00492         MOVLW   0x06
Message[1301]: Using default destination of 0 (Access Bank).
000142 6EE5           00493         MOVWF   POSTDEC1
000144 0E00           00494         MOVLW   0x00
Message[1301]: Using default destination of 0 (Access Bank).
000146 6EE5           00495         MOVWF   POSTDEC1
000148 EC?? F0??      00496         CALL    _hd44780_send_all
00014C 52E6           00497         MOVF    POSTINC1, F
00014E 52E6           00498         MOVF    POSTINC1, F
000150 CFE4 F000      00499         MOVFF   PREINC1, r0x01
000154 CFE4 F000      00500         MOVFF   PREINC1, r0x00
000158 CFE4 FFD9      00501         MOVFF   PREINC1, FSR2L
00015C 0012           00502         RETURN  
                      00503 
                      00504 ; ; Starting pCode block
                      00505 S_hd44780__hd44780_initialize_by_instruction    code
000000                00506 _hd44780_initialize_by_instruction:
                      00507         .line   220; hd44780.c  __once void hd44780_initialize_by_instruction(void)
000000 CFD9 FFE5      00508         MOVFF   FSR2L, POSTDEC1
000004 CFE1 FFD9      00509         MOVFF   FSR1L, FSR2L
000008 C??? F???      00510         MOVFF   r0x00, POSTDEC1
00000C C??? F???      00511         MOVFF   r0x01, POSTDEC1
                      00512         .line   225; hd44780.c  set_bit(FLAG_NOBFCHECK, lcddev.flags);
000010 0E02           00513         MOVLW   0x02
000012 ????           00514         BANKSEL _lcddev
000014 11??           00515         IORWF   _lcddev, W, B
Message[1301]: Using default destination of 0 (Access Bank).
000016 6E??           00516         MOVWF   r0x00
000018 50??           00517         MOVF    r0x00, W
00001A ????           00518         BANKSEL _lcddev
00001C 6F??           00519         MOVWF   _lcddev, B
                      00520         .line   228; hd44780.c  for (i = 43; i; --i)
00001E 0E2B           00521         MOVLW   0x2b
Message[1301]: Using default destination of 0 (Access Bank).
000020 6E??           00522         MOVWF   r0x00
000022                00523 _00370_DS_:
                      00524         .line   229; hd44780.c  for (j=0xff; j; --j);
000022 0EFF           00525         MOVLW   0xff
Message[1301]: Using default destination of 0 (Access Bank).
000024 6E??           00526         MOVWF   r0x01
000026                00527 _00347_DS_:
000026 2E??           00528         DECFSZ  r0x01, F
000028 D???           00529         BRA     _00347_DS_
                      00530         .line   228; hd44780.c  for (i = 43; i; --i)
00002A 2E??           00531         DECFSZ  r0x00, F
gpasm-1.4.0 #1107 (Feb 13 2015)   hd44780.asm   4-21-2015  23:49:48         PAGE 12


LOC    OBJECT CODE    LINE  SOURCE TEXT
  VALUE

00002C D???           00532         BRA     _00370_DS_
                      00533         .line   235; hd44780.c  HD44780_FS_5x8DOTS);
00002E 0E30           00534         MOVLW   0x30
Message[1301]: Using default destination of 0 (Access Bank).
000030 6EE5           00535         MOVWF   POSTDEC1
000032 0E00           00536         MOVLW   0x00
Message[1301]: Using default destination of 0 (Access Bank).
000034 6EE5           00537         MOVWF   POSTDEC1
000036 EC?? F0??      00538         CALL    _hd44780_send_all
00003A 52E6           00539         MOVF    POSTINC1, F
00003C 52E6           00540         MOVF    POSTINC1, F
                      00541         .line   237; hd44780.c  for (i = 17; i; --i)
00003E 0E11           00542         MOVLW   0x11
Message[1301]: Using default destination of 0 (Access Bank).
000040 6E??           00543         MOVWF   r0x00
000042                00544 _00374_DS_:
                      00545         .line   239; hd44780.c  do { }while(0);
000042 0EFF           00546         MOVLW   0xff
Message[1301]: Using default destination of 0 (Access Bank).
000044 6E??           00547         MOVWF   r0x01
000046                00548 _00320_DS_:
                      00549         .line   238; hd44780.c  for (j = 0xff; j; --j)
000046 2E??           00550         DECFSZ  r0x01, F
000048 D???           00551         BRA     _00320_DS_
                      00552         .line   237; hd44780.c  for (i = 17; i; --i)
00004A 2E??           00553         DECFSZ  r0x00, F
00004C D???           00554         BRA     _00374_DS_
                      00555         .line   243; hd44780.c  HD44780_FS_5x8DOTS);
00004E 0E30           00556         MOVLW   0x30
Message[1301]: Using default destination of 0 (Access Bank).
000050 6EE5           00557         MOVWF   POSTDEC1
000052 0E00           00558         MOVLW   0x00
Message[1301]: Using default destination of 0 (Access Bank).
000054 6EE5           00559         MOVWF   POSTDEC1
000056 EC?? F0??      00560         CALL    _hd44780_send_all
00005A 52E6           00561         MOVF    POSTINC1, F
00005C 52E6           00562         MOVF    POSTINC1, F
                      00563         .line   245; hd44780.c  for (i = 2; i; --i)
00005E 0E02           00564         MOVLW   0x02
Message[1301]: Using default destination of 0 (Access Bank).
000060 6E??           00565         MOVWF   r0x00
000062                00566 _00378_DS_:
                      00567         .line   246; hd44780.c  for (j = 0xff; j; --j);
000062 0EFF           00568         MOVLW   0xff
Message[1301]: Using default destination of 0 (Access Bank).
000064 6E??           00569         MOVWF   r0x01
000066                00570 _00355_DS_:
000066 2E??           00571         DECFSZ  r0x01, F
000068 D???           00572         BRA     _00355_DS_
                      00573         .line   245; hd44780.c  for (i = 2; i; --i)
00006A 2E??           00574         DECFSZ  r0x00, F
00006C D???           00575         BRA     _00378_DS_
                      00576         .line   251; hd44780.c  HD44780_FS_5x8DOTS);
gpasm-1.4.0 #1107 (Feb 13 2015)   hd44780.asm   4-21-2015  23:49:48         PAGE 13


LOC    OBJECT CODE    LINE  SOURCE TEXT
  VALUE

00006E 0E30           00577         MOVLW   0x30
Message[1301]: Using default destination of 0 (Access Bank).
000070 6EE5           00578         MOVWF   POSTDEC1
000072 0E00           00579         MOVLW   0x00
Message[1301]: Using default destination of 0 (Access Bank).
000074 6EE5           00580         MOVWF   POSTDEC1
000076 EC?? F0??      00581         CALL    _hd44780_send_all
00007A 52E6           00582         MOVF    POSTINC1, F
00007C 52E6           00583         MOVF    POSTINC1, F
                      00584         .line   260; hd44780.c  do { }while(0);
00007E 0E70           00585         MOVLW   0x70
Message[1301]: Using default destination of 0 (Access Bank).
000080 6E??           00586         MOVWF   r0x00
000082                00587 _00328_DS_:
                      00588         .line   259; hd44780.c  for (i = 112; i; --i)
000082 2E??           00589         DECFSZ  r0x00, F
000084 D???           00590         BRA     _00328_DS_
                      00591         .line   264; hd44780.c  HD44780_FS_5x8DOTS);
000086 0E30           00592         MOVLW   0x30
Message[1301]: Using default destination of 0 (Access Bank).
000088 6EE5           00593         MOVWF   POSTDEC1
00008A 0E00           00594         MOVLW   0x00
Message[1301]: Using default destination of 0 (Access Bank).
00008C 6EE5           00595         MOVWF   POSTDEC1
00008E EC?? F0??      00596         CALL    _hd44780_send_all
000092 52E6           00597         MOVF    POSTINC1, F
000094 52E6           00598         MOVF    POSTINC1, F
                      00599         .line   267; hd44780.c  do { }while(0);
000096 0E70           00600         MOVLW   0x70
Message[1301]: Using default destination of 0 (Access Bank).
000098 6E??           00601         MOVWF   r0x00
00009A                00602 _00331_DS_:
                      00603         .line   266; hd44780.c  for (i = 112; i; --i)
00009A 2E??           00604         DECFSZ  r0x00, F
00009C D???           00605         BRA     _00331_DS_
                      00606         .line   271; hd44780.c  HD44780_DOOC_CURSORNOBLINK); /* display off */
00009E 0E08           00607         MOVLW   0x08
Message[1301]: Using default destination of 0 (Access Bank).
0000A0 6EE5           00608         MOVWF   POSTDEC1
0000A2 0E00           00609         MOVLW   0x00
Message[1301]: Using default destination of 0 (Access Bank).
0000A4 6EE5           00610         MOVWF   POSTDEC1
0000A6 EC?? F0??      00611         CALL    _hd44780_send_all
0000AA 52E6           00612         MOVF    POSTINC1, F
0000AC 52E6           00613         MOVF    POSTINC1, F
                      00614         .line   274; hd44780.c  do { }while(0);
0000AE 0E70           00615         MOVLW   0x70
Message[1301]: Using default destination of 0 (Access Bank).
0000B0 6E??           00616         MOVWF   r0x00
0000B2                00617 _00334_DS_:
                      00618         .line   273; hd44780.c  for (i = 112; i; --i)
0000B2 2E??           00619         DECFSZ  r0x00, F
0000B4 D???           00620         BRA     _00334_DS_
gpasm-1.4.0 #1107 (Feb 13 2015)   hd44780.asm   4-21-2015  23:49:48         PAGE 14


LOC    OBJECT CODE    LINE  SOURCE TEXT
  VALUE

                      00621         .line   276; hd44780.c  HD44780_CLRDISP); /* display clear */
0000B6 0E01           00622         MOVLW   0x01
Message[1301]: Using default destination of 0 (Access Bank).
0000B8 6EE5           00623         MOVWF   POSTDEC1
0000BA 0E00           00624         MOVLW   0x00
Message[1301]: Using default destination of 0 (Access Bank).
0000BC 6EE5           00625         MOVWF   POSTDEC1
0000BE EC?? F0??      00626         CALL    _hd44780_send_all
0000C2 52E6           00627         MOVF    POSTINC1, F
0000C4 52E6           00628         MOVF    POSTINC1, F
                      00629         .line   279; hd44780.c  do { }while(0);
0000C6 0E70           00630         MOVLW   0x70
Message[1301]: Using default destination of 0 (Access Bank).
0000C8 6E??           00631         MOVWF   r0x00
0000CA                00632 _00337_DS_:
                      00633         .line   278; hd44780.c  for (i = 112; i; --i)
0000CA 2E??           00634         DECFSZ  r0x00, F
0000CC D???           00635         BRA     _00337_DS_
                      00636         .line   281; hd44780.c  HD44780_EMS_INC | HD44780_EMS_NOSHIFT);
0000CE 0E06           00637         MOVLW   0x06
Message[1301]: Using default destination of 0 (Access Bank).
0000D0 6EE5           00638         MOVWF   POSTDEC1
0000D2 0E00           00639         MOVLW   0x00
Message[1301]: Using default destination of 0 (Access Bank).
0000D4 6EE5           00640         MOVWF   POSTDEC1
0000D6 EC?? F0??      00641         CALL    _hd44780_send_all
0000DA 52E6           00642         MOVF    POSTINC1, F
0000DC 52E6           00643         MOVF    POSTINC1, F
                      00644         .line   284; hd44780.c  do { }while(0);
0000DE 0E70           00645         MOVLW   0x70
Message[1301]: Using default destination of 0 (Access Bank).
0000E0 6E??           00646         MOVWF   r0x00
0000E2                00647 _00340_DS_:
                      00648         .line   283; hd44780.c  for (i = 112; i; --i)
0000E2 2E??           00649         DECFSZ  r0x00, F
0000E4 D???           00650         BRA     _00340_DS_
0000E6 ????           00651         BANKSEL _lcddev
                      00652         .line   287; hd44780.c  clear_bit(FLAG_NOBFCHECK, lcddev.flags);
0000E8 6B??           00653         CLRF    _lcddev, B
0000EA CFE4 F000      00654         MOVFF   PREINC1, r0x01
0000EE CFE4 F000      00655         MOVFF   PREINC1, r0x00
0000F2 CFE4 FFD9      00656         MOVFF   PREINC1, FSR2L
0000F6 0012           00657         RETURN  
                      00658 
                      00659 ; ; Starting pCode block
                      00660 S_hd44780__hd44780_send_all     code
000000                00661 _hd44780_send_all:
                      00662         .line   186; hd44780.c  void hd44780_send_all(u8 flags, u8 command)
000000 CFD9 FFE5      00663         MOVFF   FSR2L, POSTDEC1
000004 CFE1 FFD9      00664         MOVFF   FSR1L, FSR2L
000008 C??? F???      00665         MOVFF   r0x00, POSTDEC1
00000C C??? F???      00666         MOVFF   r0x01, POSTDEC1
000010 C??? F???      00667         MOVFF   r0x02, POSTDEC1
gpasm-1.4.0 #1107 (Feb 13 2015)   hd44780.asm   4-21-2015  23:49:48         PAGE 15


LOC    OBJECT CODE    LINE  SOURCE TEXT
  VALUE

000014 0E02           00668         MOVLW   0x02
000016 CFDB F000      00669         MOVFF   PLUSW2, r0x00
00001A 0E03           00670         MOVLW   0x03
00001C CFDB F000      00671         MOVFF   PLUSW2, r0x01
000020 ????           00672         BANKSEL _lcddev
                      00673         .line   190; hd44780.c  if ( !test_bit(FLAG_NOBFCHECK, lcddev.flags) ) {
000022 B3??           00674         BTFSC   _lcddev, 1, B
000024 D???           00675         BRA     _00279_DS_
                      00676         .line   192; hd44780.c  for (i=0; i<NUM_CONTROLLERS ; i++) {
Message[1301]: Using default destination of 0 (Access Bank).
000026 6A??           00677         CLRF    r0x02
000028                00678 _00296_DS_:
                      00679         .line   193; hd44780.c  _hd44780_wait_for_ready_(i);
000028 50??           00680         MOVF    r0x02, W
Message[1301]: Using default destination of 0 (Access Bank).
00002A 6EE5           00681         MOVWF   POSTDEC1
00002C EC?? F0??      00682         CALL    __hd44780_wait_for_ready_
000030 52E6           00683         MOVF    POSTINC1, F
                      00684         .line   192; hd44780.c  for (i=0; i<NUM_CONTROLLERS ; i++) {
000032 2A??           00685         INCF    r0x02, F
000034 0E05           00686         MOVLW   0x05
000036 5C??           00687         SUBWF   r0x02, W
000038 E3??           00688         BNC     _00296_DS_
00003A                00689 _00279_DS_:
                      00690         .line   197; hd44780.c  _hd44780_data_forward_();
Message[1301]: Using default destination of 0 (Access Bank).
00003A 6A??           00691         CLRF    _TRISB
                      00692         .line   198; hd44780.c  _hd44780_data_set_(command);
00003C C??? F???      00693         MOVFF   r0x01, _PORTB
                      00694         .line   199; hd44780.c  _hd44780_capable_(flags);
000040 C??? F???      00695         MOVFF   r0x00, _PORTC
                      00696         .line   200; hd44780.c  _hd44780_enable_all_(flags);
000044 0E3F           00697         MOVLW   0x3f
Message[1301]: Using default destination of 0 (Access Bank).
000046 6E??           00698         MOVWF   _PORTA
000048 0EC0           00699         MOVLW   0xc0
00004A 10??           00700         IORWF   r0x00, W
Message[1301]: Using default destination of 0 (Access Bank).
00004C 6E??           00701         MOVWF   _PORTC
00004E 0000           00702         nop 
000050 0000           00703         nop 
000052 0000           00704         nop 
000054 0000           00705         nop 
                      00706         .line   201; hd44780.c  _hd44780_disable_(flags);
Message[1301]: Using default destination of 0 (Access Bank).
000056 6A??           00707         CLRF    _PORTA
000058 C??? F???      00708         MOVFF   r0x00, _PORTC
00005C CFE4 F000      00709         MOVFF   PREINC1, r0x02
000060 CFE4 F000      00710         MOVFF   PREINC1, r0x01
000064 CFE4 F000      00711         MOVFF   PREINC1, r0x00
000068 CFE4 FFD9      00712         MOVFF   PREINC1, FSR2L
00006C 0012           00713         RETURN  
                      00714 
gpasm-1.4.0 #1107 (Feb 13 2015)   hd44780.asm   4-21-2015  23:49:48         PAGE 16


LOC    OBJECT CODE    LINE  SOURCE TEXT
  VALUE

                      00715 ; ; Starting pCode block
                      00716 S_hd44780__hd44780_send code
000000                00717 _hd44780_send:
                      00718         .line   164; hd44780.c  void hd44780_send(u8 ctrl_nr, u8 flags, u8 command)
000000 CFD9 FFE5      00719         MOVFF   FSR2L, POSTDEC1
000004 CFE1 FFD9      00720         MOVFF   FSR1L, FSR2L
000008 C??? F???      00721         MOVFF   r0x00, POSTDEC1
00000C C??? F???      00722         MOVFF   r0x01, POSTDEC1
000010 C??? F???      00723         MOVFF   r0x02, POSTDEC1
000014 0E02           00724         MOVLW   0x02
000016 CFDB F000      00725         MOVFF   PLUSW2, r0x00
00001A 0E03           00726         MOVLW   0x03
00001C CFDB F000      00727         MOVFF   PLUSW2, r0x01
000020 0E04           00728         MOVLW   0x04
000022 CFDB F000      00729         MOVFF   PLUSW2, r0x02
                      00730         .line   166; hd44780.c  if ( ctrl_nr >= NUM_CONTROLLERS ) return;
000026 0E05           00731         MOVLW   0x05
000028 5C??           00732         SUBWF   r0x00, W
00002A E2??           00733         BC      _00254_DS_
00002C                00734 _00235_DS_:
00002C ????           00735         BANKSEL _lcddev
                      00736         .line   170; hd44780.c  if ( !test_bit(FLAG_NOBFCHECK, lcddev.flags) ) 
00002E B3??           00737         BTFSC   _lcddev, 1, B
000030 D???           00738         BRA     _00237_DS_
                      00739         .line   171; hd44780.c  _hd44780_wait_for_ready_(ctrl_nr);
000032 50??           00740         MOVF    r0x00, W
Message[1301]: Using default destination of 0 (Access Bank).
000034 6EE5           00741         MOVWF   POSTDEC1
000036 EC?? F0??      00742         CALL    __hd44780_wait_for_ready_
00003A 52E6           00743         MOVF    POSTINC1, F
00003C                00744 _00237_DS_:
                      00745         .line   174; hd44780.c  _hd44780_data_forward_();
Message[1301]: Using default destination of 0 (Access Bank).
00003C 6A??           00746         CLRF    _TRISB
                      00747         .line   175; hd44780.c  _hd44780_data_set_(command);
00003E C??? F???      00748         MOVFF   r0x02, _PORTB
                      00749         .line   176; hd44780.c  _hd44780_capable_(flags);
000042 C??? F???      00750         MOVFF   r0x01, _PORTC
                      00751         .line   177; hd44780.c  _hd44780_enable_(flags, ctrl_nr);
000046 50??           00752         MOVF    r0x00, W
000048 0A07           00753         XORLW   0x07
00004A E1??           00754         BNZ     _00256_DS_
00004C 0E01           00755         MOVLW   0x01
Message[1301]: Using default destination of 0 (Access Bank).
00004E 6E??           00756         MOVWF   r0x02
000050 D???           00757         BRA     _00257_DS_
000052                00758 _00256_DS_:
000052 0E02           00759         MOVLW   0x02
Message[1301]: Using default destination of 0 (Access Bank).
000054 6E??           00760         MOVWF   r0x02
000056 50??           00761         MOVF    r0x00, W
000058 E0??           00762         BZ      _00257_DS_
Message[1301]: Using default destination of 0 (Access Bank).
gpasm-1.4.0 #1107 (Feb 13 2015)   hd44780.asm   4-21-2015  23:49:48         PAGE 17


LOC    OBJECT CODE    LINE  SOURCE TEXT
  VALUE

00005A 6CE8           00763         NEGF    WREG
00005C 90D8           00764         BCF     STATUS, 0
00005E                00765 _00272_DS_:
00005E 36??           00766         RLCF    r0x02, F
000060 0F01           00767         ADDLW   0x01
000062 E3??           00768         BNC     _00272_DS_
000064                00769 _00257_DS_:
000064 0E3F           00770         MOVLW   0x3f
000066 14??           00771         ANDWF   r0x02, W
Message[1301]: Using default destination of 0 (Access Bank).
000068 6E??           00772         MOVWF   _PORTA
00006A 0EC0           00773         MOVLW   0xc0
00006C 16??           00774         ANDWF   r0x02, F
00006E 50??           00775         MOVF    r0x01, W
000070 10??           00776         IORWF   r0x02, W
Message[1301]: Using default destination of 0 (Access Bank).
000072 6E??           00777         MOVWF   _PORTC
000074 0000           00778         nop 
000076 0000           00779         nop 
000078 0000           00780         nop 
00007A 0000           00781         nop 
                      00782         .line   178; hd44780.c  _hd44780_disable_(flags);
Message[1301]: Using default destination of 0 (Access Bank).
00007C 6A??           00783         CLRF    _PORTA
00007E C??? F???      00784         MOVFF   r0x01, _PORTC
000082                00785 _00254_DS_:
000082 CFE4 F000      00786         MOVFF   PREINC1, r0x02
000086 CFE4 F000      00787         MOVFF   PREINC1, r0x01
00008A CFE4 F000      00788         MOVFF   PREINC1, r0x00
00008E CFE4 FFD9      00789         MOVFF   PREINC1, FSR2L
000092 0012           00790         RETURN  
                      00791 
                      00792 ; ; Starting pCode block
                      00793 S_hd44780__hd44780_recv code
000000                00794 _hd44780_recv:
                      00795         .line   138; hd44780.c  u8 hd44780_recv(u8 ctrl_nr, u8 flags)
000000 CFD9 FFE5      00796         MOVFF   FSR2L, POSTDEC1
000004 CFE1 FFD9      00797         MOVFF   FSR1L, FSR2L
000008 C??? F???      00798         MOVFF   r0x00, POSTDEC1
00000C C??? F???      00799         MOVFF   r0x01, POSTDEC1
000010 C??? F???      00800         MOVFF   r0x02, POSTDEC1
000014 0E02           00801         MOVLW   0x02
000016 CFDB F000      00802         MOVFF   PLUSW2, r0x00
00001A 0E03           00803         MOVLW   0x03
00001C CFDB F000      00804         MOVFF   PLUSW2, r0x01
                      00805         .line   142; hd44780.c  if ( ctrl_nr >= NUM_CONTROLLERS ) return 0;
000020 0E05           00806         MOVLW   0x05
000022 5C??           00807         SUBWF   r0x00, W
000024 E3??           00808         BNC     _00188_DS_
Message[1301]: Using default destination of 0 (Access Bank).
000026 6AE8           00809         CLRF    WREG
000028 D???           00810         BRA     _00210_DS_
00002A                00811 _00188_DS_:
gpasm-1.4.0 #1107 (Feb 13 2015)   hd44780.asm   4-21-2015  23:49:48         PAGE 18


LOC    OBJECT CODE    LINE  SOURCE TEXT
  VALUE

                      00812         .line   144; hd44780.c  flags |= RW_READ;
00002A 80??           00813         BSF     r0x01, 0
00002C ????           00814         BANKSEL _lcddev
                      00815         .line   146; hd44780.c  if ( !test_bit(FLAG_NOBFCHECK, lcddev.flags) ) 
00002E B3??           00816         BTFSC   _lcddev, 1, B
000030 D???           00817         BRA     _00190_DS_
                      00818         .line   147; hd44780.c  _hd44780_wait_for_ready_(ctrl_nr);
000032 50??           00819         MOVF    r0x00, W
Message[1301]: Using default destination of 0 (Access Bank).
000034 6EE5           00820         MOVWF   POSTDEC1
000036 EC?? F0??      00821         CALL    __hd44780_wait_for_ready_
00003A 52E6           00822         MOVF    POSTINC1, F
00003C                00823 _00190_DS_:
                      00824         .line   149; hd44780.c  _hd44780_data_reverse_();
00003C 0EFF           00825         MOVLW   0xff
Message[1301]: Using default destination of 0 (Access Bank).
00003E 6E??           00826         MOVWF   _TRISB
                      00827         .line   150; hd44780.c  _hd44780_capable_(flags);
000040 C??? F???      00828         MOVFF   r0x01, _PORTC
                      00829         .line   151; hd44780.c  _hd44780_enable_(flags, ctrl_nr);
000044 50??           00830         MOVF    r0x00, W
000046 0A07           00831         XORLW   0x07
000048 E1??           00832         BNZ     _00212_DS_
00004A 0E01           00833         MOVLW   0x01
Message[1301]: Using default destination of 0 (Access Bank).
00004C 6E??           00834         MOVWF   r0x02
00004E D???           00835         BRA     _00213_DS_
000050                00836 _00212_DS_:
000050 0E02           00837         MOVLW   0x02
Message[1301]: Using default destination of 0 (Access Bank).
000052 6E??           00838         MOVWF   r0x02
000054 50??           00839         MOVF    r0x00, W
000056 E0??           00840         BZ      _00213_DS_
Message[1301]: Using default destination of 0 (Access Bank).
000058 6CE8           00841         NEGF    WREG
00005A 90D8           00842         BCF     STATUS, 0
00005C                00843 _00229_DS_:
00005C 36??           00844         RLCF    r0x02, F
00005E 0F01           00845         ADDLW   0x01
000060 E3??           00846         BNC     _00229_DS_
000062                00847 _00213_DS_:
000062 0E3F           00848         MOVLW   0x3f
000064 14??           00849         ANDWF   r0x02, W
Message[1301]: Using default destination of 0 (Access Bank).
000066 6E??           00850         MOVWF   _PORTA
000068 0EC0           00851         MOVLW   0xc0
00006A 16??           00852         ANDWF   r0x02, F
00006C 50??           00853         MOVF    r0x01, W
00006E 10??           00854         IORWF   r0x02, W
Message[1301]: Using default destination of 0 (Access Bank).
000070 6E??           00855         MOVWF   _PORTC
000072 0000           00856         nop 
000074 0000           00857         nop 
gpasm-1.4.0 #1107 (Feb 13 2015)   hd44780.asm   4-21-2015  23:49:48         PAGE 19


LOC    OBJECT CODE    LINE  SOURCE TEXT
  VALUE

000076 0000           00858         nop 
000078 0000           00859         nop 
00007A 0000           00860         nop 
00007C 0000           00861         nop 
00007E 0000           00862         nop 
000080 0000           00863         nop 
000082 0000           00864         nop 
000084 0000           00865         nop 
                      00866         .line   153; hd44780.c  status = _hd44780_data_get_();
000086 C??? F???      00867         MOVFF   _PORTB, r0x00
                      00868         .line   154; hd44780.c  _hd44780_disable_(flags);
Message[1301]: Using default destination of 0 (Access Bank).
00008A 6A??           00869         CLRF    _PORTA
00008C C??? F???      00870         MOVFF   r0x01, _PORTC
                      00871         .line   161; hd44780.c  return status;
000090 50??           00872         MOVF    r0x00, W
000092                00873 _00210_DS_:
000092 CFE4 F000      00874         MOVFF   PREINC1, r0x02
000096 CFE4 F000      00875         MOVFF   PREINC1, r0x01
00009A CFE4 F000      00876         MOVFF   PREINC1, r0x00
00009E CFE4 FFD9      00877         MOVFF   PREINC1, FSR2L
0000A2 0012           00878         RETURN  
                      00879 
                      00880 ; ; Starting pCode block
                      00881 S_hd44780__hd44780_init_port    code
000000                00882 _hd44780_init_port:
                      00883         .line   112; hd44780.c  __once void hd44780_init_port(void)
000000 CFD9 FFE5      00884         MOVFF   FSR2L, POSTDEC1
000004 CFE1 FFD9      00885         MOVFF   FSR1L, FSR2L
                      00886         .line   114; hd44780.c  ADCON0=0x00; // turn off analog to digital conversion module
Message[1301]: Using default destination of 0 (Access Bank).
000008 6A??           00887         CLRF    _ADCON0
                      00888         .line   115; hd44780.c  ADCON1=0x0f; // set all analog to digital conversion module inputs as di
                            gital inputs/outputs
00000A 0E0F           00889         MOVLW   0x0f
Message[1301]: Using default destination of 0 (Access Bank).
00000C 6E??           00890         MOVWF   _ADCON1
                      00891         .line   116; hd44780.c  CMCON=0x07; // turn off comparator module
00000E 0E07           00892         MOVLW   0x07
Message[1301]: Using default destination of 0 (Access Bank).
000010 6E??           00893         MOVWF   _CMCON
                      00894         .line   119; hd44780.c  PORTA=0x00;
Message[1301]: Using default destination of 0 (Access Bank).
000012 6A??           00895         CLRF    _PORTA
                      00896         .line   120; hd44780.c  LATA=0x00;
Message[1301]: Using default destination of 0 (Access Bank).
000014 6A??           00897         CLRF    _LATA
                      00898         .line   121; hd44780.c  TRISA=0x00;
Message[1301]: Using default destination of 0 (Access Bank).
000016 6A??           00899         CLRF    _TRISA
                      00900         .line   124; hd44780.c  PORTB=0x00;
Message[1301]: Using default destination of 0 (Access Bank).
000018 6A??           00901         CLRF    _PORTB
gpasm-1.4.0 #1107 (Feb 13 2015)   hd44780.asm   4-21-2015  23:49:48         PAGE 20


LOC    OBJECT CODE    LINE  SOURCE TEXT
  VALUE

                      00902         .line   125; hd44780.c  LATB=0x00;
Message[1301]: Using default destination of 0 (Access Bank).
00001A 6A??           00903         CLRF    _LATB
                      00904         .line   126; hd44780.c  TRISB=0x00;
Message[1301]: Using default destination of 0 (Access Bank).
00001C 6A??           00905         CLRF    _TRISB
                      00906         .line   129; hd44780.c  PORTC=0x00;
Message[1301]: Using default destination of 0 (Access Bank).
00001E 6A??           00907         CLRF    _PORTC
                      00908         .line   130; hd44780.c  LATC=0x00;
Message[1301]: Using default destination of 0 (Access Bank).
000020 6A??           00909         CLRF    _LATC
                      00910         .line   131; hd44780.c  TRISC=0x00;
Message[1301]: Using default destination of 0 (Access Bank).
000022 6A??           00911         CLRF    _TRISC
                      00912         .line   133; hd44780.c  _hd44780_data_set_(0x00);
Message[1301]: Using default destination of 0 (Access Bank).
000024 6A??           00913         CLRF    _PORTB
                      00914         .line   134; hd44780.c  _hd44780_data_reverse_();
000026 0EFF           00915         MOVLW   0xff
Message[1301]: Using default destination of 0 (Access Bank).
000028 6E??           00916         MOVWF   _TRISB
00002A CFE4 FFD9      00917         MOVFF   PREINC1, FSR2L
00002E 0012           00918         RETURN  
                      00919 
                      00920 ; ; Starting pCode block
                      00921 S_hd44780___hd44780_wait_for_ready_     code
000000                00922 __hd44780_wait_for_ready_:
                      00923         .line   81; hd44780.c   static void _hd44780_wait_for_ready_(u8 ctrl_nr)
000000 CFD9 FFE5      00924         MOVFF   FSR2L, POSTDEC1
000004 CFE1 FFD9      00925         MOVFF   FSR1L, FSR2L
000008 C??? F???      00926         MOVFF   r0x00, POSTDEC1
00000C C??? F???      00927         MOVFF   r0x01, POSTDEC1
000010 C??? F???      00928         MOVFF   r0x02, POSTDEC1
000014 C??? F???      00929         MOVFF   r0x03, POSTDEC1
000018 C??? F???      00930         MOVFF   r0x04, POSTDEC1
00001C 0E02           00931         MOVLW   0x02
00001E CFDB F000      00932         MOVFF   PLUSW2, r0x00
                      00933         .line   86; hd44780.c   _hd44780_data_reverse_();
000022 0EFF           00934         MOVLW   0xff
Message[1301]: Using default destination of 0 (Access Bank).
000024 6E??           00935         MOVWF   _TRISB
                      00936         .line   87; hd44780.c   _hd44780_capable_(RW_READ | RS_INST);
000026 0E01           00937         MOVLW   0x01
Message[1301]: Using default destination of 0 (Access Bank).
000028 6E??           00938         MOVWF   _PORTC
                      00939         .line   88; hd44780.c   _hd44780_enable_(RW_READ | RS_INST, ctrl_nr);
Message[1301]: Using default destination of 0 (Access Bank).
00002A 6A??           00940         CLRF    r0x01
00002C 50??           00941         MOVF    r0x00, W
00002E 0A07           00942         XORLW   0x07
000030 E1??           00943         BNZ     _00170_DS_
000032 2A??           00944         INCF    r0x01, F
gpasm-1.4.0 #1107 (Feb 13 2015)   hd44780.asm   4-21-2015  23:49:48         PAGE 21


LOC    OBJECT CODE    LINE  SOURCE TEXT
  VALUE

000034                00945 _00170_DS_:
000034 50??           00946         MOVF    r0x01, W
000036 E0??           00947         BZ      _00146_DS_
000038 0E01           00948         MOVLW   0x01
Message[1301]: Using default destination of 0 (Access Bank).
00003A 6E??           00949         MOVWF   r0x02
00003C D???           00950         BRA     _00147_DS_
00003E                00951 _00146_DS_:
00003E 0E02           00952         MOVLW   0x02
Message[1301]: Using default destination of 0 (Access Bank).
000040 6E??           00953         MOVWF   r0x02
000042 50??           00954         MOVF    r0x00, W
000044 E0??           00955         BZ      _00147_DS_
Message[1301]: Using default destination of 0 (Access Bank).
000046 6CE8           00956         NEGF    WREG
000048 90D8           00957         BCF     STATUS, 0
00004A                00958 _00172_DS_:
00004A 36??           00959         RLCF    r0x02, F
00004C 0F01           00960         ADDLW   0x01
00004E E3??           00961         BNC     _00172_DS_
000050                00962 _00147_DS_:
000050 0E3F           00963         MOVLW   0x3f
000052 14??           00964         ANDWF   r0x02, W
Message[1301]: Using default destination of 0 (Access Bank).
000054 6E??           00965         MOVWF   _PORTA
000056 0EC0           00966         MOVLW   0xc0
000058 16??           00967         ANDWF   r0x02, F
00005A 0E01           00968         MOVLW   0x01
00005C 10??           00969         IORWF   r0x02, W
Message[1301]: Using default destination of 0 (Access Bank).
00005E 6E??           00970         MOVWF   _PORTC
000060 0000           00971         nop 
000062 0000           00972         nop 
000064 0000           00973         nop 
000066 0000           00974         nop 
                      00975         .line   89; hd44780.c   for ( count = BUSYFLAG_STUCK; count && _hd44780_data_get_busyflag_(); --
                            count ) {
000068 0E02           00976         MOVLW   0x02
Message[1301]: Using default destination of 0 (Access Bank).
00006A 6E??           00977         MOVWF   r0x02
00006C 50??           00978         MOVF    r0x00, W
00006E E0??           00979         BZ      _00176_DS_
Message[1301]: Using default destination of 0 (Access Bank).
000070 6CE8           00980         NEGF    WREG
000072 90D8           00981         BCF     STATUS, 0
000074                00982 _00177_DS_:
000074 36??           00983         RLCF    r0x02, F
000076 0F01           00984         ADDLW   0x01
000078 E3??           00985         BNC     _00177_DS_
00007A                00986 _00176_DS_:
00007A 0EFF           00987         MOVLW   0xff
Message[1301]: Using default destination of 0 (Access Bank).
00007C 6E??           00988         MOVWF   r0x00
gpasm-1.4.0 #1107 (Feb 13 2015)   hd44780.asm   4-21-2015  23:49:48         PAGE 22


LOC    OBJECT CODE    LINE  SOURCE TEXT
  VALUE

Message[1301]: Using default destination of 0 (Access Bank).
00007E 6E??           00989         MOVWF   r0x03
000080                00990 _00142_DS_:
000080 50??           00991         MOVF    r0x00, W
000082 10??           00992         IORWF   r0x03, W
000084 E0??           00993         BZ      _00132_DS_
000086 AE??           00994         BTFSS   _PORTBbits, 7
000088 D???           00995         BRA     _00132_DS_
                      00996         .line   90; hd44780.c   _hd44780_disable_(RW_READ | RS_INST);
Message[1301]: Using default destination of 0 (Access Bank).
00008A 6A??           00997         CLRF    _PORTA
00008C 0E01           00998         MOVLW   0x01
Message[1301]: Using default destination of 0 (Access Bank).
00008E 6E??           00999         MOVWF   _PORTC
                      01000         .line   94; hd44780.c   _hd44780_enable_(RW_READ | RS_INST, ctrl_nr);
000090 50??           01001         MOVF    r0x01, W
000092 E0??           01002         BZ      _00148_DS_
000094 0E01           01003         MOVLW   0x01
Message[1301]: Using default destination of 0 (Access Bank).
000096 6E??           01004         MOVWF   r0x04
000098 D???           01005         BRA     _00149_DS_
00009A                01006 _00148_DS_:
00009A C??? F???      01007         MOVFF   r0x02, r0x04
00009E                01008 _00149_DS_:
00009E 0E3F           01009         MOVLW   0x3f
0000A0 14??           01010         ANDWF   r0x04, W
Message[1301]: Using default destination of 0 (Access Bank).
0000A2 6E??           01011         MOVWF   _PORTA
0000A4 0EC0           01012         MOVLW   0xc0
0000A6 16??           01013         ANDWF   r0x04, F
0000A8 0E01           01014         MOVLW   0x01
0000AA 10??           01015         IORWF   r0x04, W
Message[1301]: Using default destination of 0 (Access Bank).
0000AC 6E??           01016         MOVWF   _PORTC
0000AE 0000           01017         nop 
0000B0 0000           01018         nop 
0000B2 0000           01019         nop 
0000B4 0000           01020         nop 
                      01021         .line   89; hd44780.c   for ( count = BUSYFLAG_STUCK; count && _hd44780_data_get_busyflag_(); --
                            count ) {
0000B6 0EFF           01022         MOVLW   0xff
0000B8 26??           01023         ADDWF   r0x00, F
0000BA 22??           01024         ADDWFC  r0x03, F
0000BC D???           01025         BRA     _00142_DS_
0000BE                01026 _00132_DS_:
                      01027         .line   96; hd44780.c   _hd44780_disable_(RW_READ | RS_INST);
Message[1301]: Using default destination of 0 (Access Bank).
0000BE 6A??           01028         CLRF    _PORTA
0000C0 0E01           01029         MOVLW   0x01
Message[1301]: Using default destination of 0 (Access Bank).
0000C2 6E??           01030         MOVWF   _PORTC
                      01031         .line   102; hd44780.c  if ( !count ) {
0000C4 50??           01032         MOVF    r0x00, W
gpasm-1.4.0 #1107 (Feb 13 2015)   hd44780.asm   4-21-2015  23:49:48         PAGE 23


LOC    OBJECT CODE    LINE  SOURCE TEXT
  VALUE

0000C6 10??           01033         IORWF   r0x03, W
0000C8 E1??           01034         BNZ     _00144_DS_
                      01035         .line   105; hd44780.c  set_bit(FLAG_NOBFCHECK, lcddev.flags);
0000CA 0E02           01036         MOVLW   0x02
0000CC ????           01037         BANKSEL _lcddev
0000CE 11??           01038         IORWF   _lcddev, W, B
Message[1301]: Using default destination of 0 (Access Bank).
0000D0 6E??           01039         MOVWF   r0x00
0000D2 50??           01040         MOVF    r0x00, W
0000D4 ????           01041         BANKSEL _lcddev
0000D6 6F??           01042         MOVWF   _lcddev, B
0000D8                01043 _00144_DS_:
0000D8 CFE4 F000      01044         MOVFF   PREINC1, r0x04
0000DC CFE4 F000      01045         MOVFF   PREINC1, r0x03
0000E0 CFE4 F000      01046         MOVFF   PREINC1, r0x02
0000E4 CFE4 F000      01047         MOVFF   PREINC1, r0x01
0000E8 CFE4 F000      01048         MOVFF   PREINC1, r0x00
0000EC CFE4 FFD9      01049         MOVFF   PREINC1, FSR2L
0000F0 0012           01050         RETURN  
                      01051 
                      01052 
                      01053 
                      01054 ; Statistics:
                      01055 ; code size:     1310 (0x051e) bytes ( 1.00%)
                      01056 ;                 655 (0x028f) words
                      01057 ; udata size:       1 (0x0001) bytes ( 0.06%)
                      01058 ; access size:      5 (0x0005) bytes
                      01059 
                      01060 
                      01061         end
gpasm-1.4.0 #1107 (Feb 13 2015)   hd44780.asm   4-21-2015  23:49:48         PAGE 24


SYMBOL TABLE
  LABEL                             VALUE

FSR1L                             00000FE1
FSR2L                             00000FD9
PLUSW2                            00000FDB
POSTDEC1                          00000FE5
POSTINC1                          00000FE6
PREINC1                           00000FE4
STATUS                            00000FD8
WREG                              00000FE8
_00132_DS_                        000000BE
_00142_DS_                        00000080
_00144_DS_                        000000D8
_00146_DS_                        0000003E
_00147_DS_                        00000050
_00148_DS_                        0000009A
_00149_DS_                        0000009E
_00170_DS_                        00000034
_00172_DS_                        0000004A
_00176_DS_                        0000007A
_00177_DS_                        00000074
_00188_DS_                        0000002A
_00190_DS_                        0000003C
_00210_DS_                        00000092
_00212_DS_                        00000050
_00213_DS_                        00000062
_00229_DS_                        0000005C
_00235_DS_                        0000002C
_00237_DS_                        0000003C
_00254_DS_                        00000082
_00256_DS_                        00000052
_00257_DS_                        00000064
_00272_DS_                        0000005E
_00279_DS_                        0000003A
_00296_DS_                        00000028
_00320_DS_                        00000046
_00328_DS_                        00000082
_00331_DS_                        0000009A
_00334_DS_                        000000B2
_00337_DS_                        000000CA
_00340_DS_                        000000E2
_00347_DS_                        00000026
_00355_DS_                        00000066
_00370_DS_                        00000022
_00374_DS_                        00000042
_00378_DS_                        00000062
_00396_DS_                        00000068
_00404_DS_                        000000A4
_00407_DS_                        000000BC
_00410_DS_                        000000D4
_00413_DS_                        000000EC
_00416_DS_                        00000104
_00424_DS_                        00000048
_00432_DS_                        00000088
_00447_DS_                        00000044
gpasm-1.4.0 #1107 (Feb 13 2015)   hd44780.asm   4-21-2015  23:49:48         PAGE 25


SYMBOL TABLE
  LABEL                             VALUE 

_00451_DS_                        00000064
_00455_DS_                        00000084
_ADCON0                           00000000
_ADCON0bits                       00000000
_ADCON1                           00000000
_ADCON1bits                       00000000
_ADCON2                           00000000
_ADCON2bits                       00000000
_ADRES                            00000000
_ADRESH                           00000000
_ADRESL                           00000000
_BAUDCON                          00000000
_BAUDCONbits                      00000000
_BAUDCTL                          00000000
_BAUDCTLbits                      00000000
_BSR                              00000000
_CCP1AS                           00000000
_CCP1ASbits                       00000000
_CCP1CON                          00000000
_CCP1CONbits                      00000000
_CCP1DEL                          00000000
_CCP1DELbits                      00000000
_CCP2CON                          00000000
_CCP2CONbits                      00000000
_CCPR1                            00000000
_CCPR1H                           00000000
_CCPR1L                           00000000
_CCPR2                            00000000
_CCPR2H                           00000000
_CCPR2L                           00000000
_CMCON                            00000000
_CMCONbits                        00000000
_CVRCON                           00000000
_CVRCONbits                       00000000
_DDRA                             00000000
_DDRAbits                         00000000
_DDRB                             00000000
_DDRBbits                         00000000
_DDRC                             00000000
_DDRCbits                         00000000
_ECCP1AS                          00000000
_ECCP1ASbits                      00000000
_ECCP1DEL                         00000000
_ECCP1DELbits                     00000000
_EEADR                            00000000
_EECON1                           00000000
_EECON1bits                       00000000
_EECON2                           00000000
_EEDATA                           00000000
_FSR0H                            00000000
_FSR0L                            00000000
_FSR1H                            00000000
_FSR1L                            00000000
gpasm-1.4.0 #1107 (Feb 13 2015)   hd44780.asm   4-21-2015  23:49:48         PAGE 26


SYMBOL TABLE
  LABEL                             VALUE 

_FSR2H                            00000000
_FSR2L                            00000000
_HLVDCON                          00000000
_HLVDCONbits                      00000000
_INDF0                            00000000
_INDF1                            00000000
_INDF2                            00000000
_INTCON                           00000000
_INTCON2                          00000000
_INTCON2bits                      00000000
_INTCON3                          00000000
_INTCON3bits                      00000000
_INTCONbits                       00000000
_IPR1                             00000000
_IPR1bits                         00000000
_IPR2                             00000000
_IPR2bits                         00000000
_LATA                             00000000
_LATAbits                         00000000
_LATB                             00000000
_LATBbits                         00000000
_LATC                             00000000
_LATCbits                         00000000
_LVDCON                           00000000
_LVDCONbits                       00000000
_OSCCON                           00000000
_OSCCONbits                       00000000
_OSCTUNE                          00000000
_OSCTUNEbits                      00000000
_PC                               00000000
_PCL                              00000000
_PCLATH                           00000000
_PCLATU                           00000000
_PIE1                             00000000
_PIE1bits                         00000000
_PIE2                             00000000
_PIE2bits                         00000000
_PIR1                             00000000
_PIR1bits                         00000000
_PIR2                             00000000
_PIR2bits                         00000000
_PLUSW0                           00000000
_PLUSW1                           00000000
_PLUSW2                           00000000
_PORTA                            00000000
_PORTAbits                        00000000
_PORTB                            00000000
_PORTBbits                        00000000
_PORTC                            00000000
_PORTCbits                        00000000
_PORTE                            00000000
_PORTEbits                        00000000
_POSTDEC0                         00000000
gpasm-1.4.0 #1107 (Feb 13 2015)   hd44780.asm   4-21-2015  23:49:48         PAGE 27


SYMBOL TABLE
  LABEL                             VALUE 

_POSTDEC1                         00000000
_POSTDEC2                         00000000
_POSTINC0                         00000000
_POSTINC1                         00000000
_POSTINC2                         00000000
_PR2                              00000000
_PREINC0                          00000000
_PREINC1                          00000000
_PREINC2                          00000000
_PROD                             00000000
_PRODH                            00000000
_PRODL                            00000000
_RCON                             00000000
_RCONbits                         00000000
_RCREG                            00000000
_RCSTA                            00000000
_RCSTAbits                        00000000
_SPBRG                            00000000
_SPBRGH                           00000000
_SSPADD                           00000000
_SSPBUF                           00000000
_SSPCON1                          00000000
_SSPCON1bits                      00000000
_SSPCON2                          00000000
_SSPCON2bits                      00000000
_SSPSTAT                          00000000
_SSPSTATbits                      00000000
_STATUS                           00000000
_STATUSbits                       00000000
_STKPTR                           00000000
_STKPTRbits                       00000000
_T0CON                            00000000
_T0CONbits                        00000000
_T1CON                            00000000
_T1CONbits                        00000000
_T2CON                            00000000
_T2CONbits                        00000000
_T3CON                            00000000
_T3CONbits                        00000000
_TABLAT                           00000000
_TBLPTR                           00000000
_TBLPTRH                          00000000
_TBLPTRL                          00000000
_TBLPTRU                          00000000
_TMR0                             00000000
_TMR0H                            00000000
_TMR0L                            00000000
_TMR1                             00000000
_TMR1H                            00000000
_TMR1L                            00000000
_TMR2                             00000000
_TMR3                             00000000
_TMR3H                            00000000
gpasm-1.4.0 #1107 (Feb 13 2015)   hd44780.asm   4-21-2015  23:49:48         PAGE 28


SYMBOL TABLE
  LABEL                             VALUE 

_TMR3L                            00000000
_TOS                              00000000
_TOSH                             00000000
_TOSL                             00000000
_TOSU                             00000000
_TRISA                            00000000
_TRISAbits                        00000000
_TRISB                            00000000
_TRISBbits                        00000000
_TRISC                            00000000
_TRISCbits                        00000000
_TXREG                            00000000
_TXSTA                            00000000
_TXSTAbits                        00000000
_UADDR                            00000000
_UADDRbits                        00000000
_UCFG                             00000000
_UCFGbits                         00000000
_UCON                             00000000
_UCONbits                         00000000
_UEIE                             00000000
_UEIEbits                         00000000
_UEIR                             00000000
_UEIRbits                         00000000
_UEP0                             00000000
_UEP0bits                         00000000
_UEP1                             00000000
_UEP10                            00000000
_UEP10bits                        00000000
_UEP11                            00000000
_UEP11bits                        00000000
_UEP12                            00000000
_UEP12bits                        00000000
_UEP13                            00000000
_UEP13bits                        00000000
_UEP14                            00000000
_UEP14bits                        00000000
_UEP15                            00000000
_UEP15bits                        00000000
_UEP1bits                         00000000
_UEP2                             00000000
_UEP2bits                         00000000
_UEP3                             00000000
_UEP3bits                         00000000
_UEP4                             00000000
_UEP4bits                         00000000
_UEP5                             00000000
_UEP5bits                         00000000
_UEP6                             00000000
_UEP6bits                         00000000
_UEP7                             00000000
_UEP7bits                         00000000
_UEP8                             00000000
gpasm-1.4.0 #1107 (Feb 13 2015)   hd44780.asm   4-21-2015  23:49:48         PAGE 29


SYMBOL TABLE
  LABEL                             VALUE 

_UEP8bits                         00000000
_UEP9                             00000000
_UEP9bits                         00000000
_UFRM                             00000000
_UFRMH                            00000000
_UFRMHbits                        00000000
_UFRML                            00000000
_UFRMLbits                        00000000
_UIE                              00000000
_UIEbits                          00000000
_UIR                              00000000
_UIRbits                          00000000
_USTAT                            00000000
_USTATbits                        00000000
_WDTCON                           00000000
_WDTCONbits                       00000000
_WREG                             00000000
__18F2550                         00000001
__ACC_RAM_LOW_END                 0000005F
__CODE_END                        00007FFF
__CODE_START                      00000000
__EEPROM_END                      00F000FF
__EEPROM_START                    00F00000
__VECTOR_INT_HIGH                 00000008
__VECTOR_INT_LOW                  00000018
__VECTOR_RESET                    00000000
__hd44780_wait_for_ready_         00000000
_hd44780_init                     00000000
_hd44780_init_port                00000000
_hd44780_initialize_by_instruction  00000000
_hd44780_recv                     00000000
_hd44780_send                     00000000
_hd44780_send_all                 00000000
_lcddev                           00000000
r0x00                             00000000
r0x01                             00000001
r0x02                             00000002
r0x03                             00000003
r0x04                             00000004

Errors   :     0
Warnings :     0 reported,     0 suppressed
Messages :   131 reported,     0 suppressed

